Certificate:
    Data:
        Version: 3 (0x2)
        Serial Number: 4098 (0x1002)
        Signature Algorithm: sha256WithRSAEncryption
        Issuer: C=FR, O=Drone Fleet, OU=Security, CN=Drone intermediate CA
        Validity
            Not Before: Mar 11 15:22:46 2026 GMT
            Not After : Mar 11 15:22:46 2027 GMT
        Subject: C=FR, O=Drone Fleet, OU=Security, CN=drone-fr-001
        Subject Public Key Info:
            Public Key Algorithm: rsaEncryption
                Public-Key: (4096 bit)
                Modulus:
                    00:d3:b8:20:46:1a:aa:84:9a:b7:bb:18:4d:a2:da:
                    6f:0d:58:1b:cf:27:dd:d3:f6:a8:9d:5d:78:15:9d:
                    88:29:ec:75:41:70:1f:9f:a4:ed:f8:9c:48:21:16:
                    04:10:23:64:f1:3f:df:3c:d6:b1:1c:d9:01:e2:72:
                    05:f3:f4:bc:34:2a:f9:89:32:49:68:a5:79:1e:62:
                    42:35:05:34:b6:60:e0:d0:e5:bf:86:d3:4d:b0:43:
                    45:4b:1d:db:d0:c6:27:f0:21:5a:ad:4d:cd:99:78:
                    1f:c8:7f:fd:aa:ec:b7:91:6d:0f:36:27:b3:c5:89:
                    bb:ae:68:2d:d2:77:99:4f:91:e5:44:4f:f3:6c:3a:
                    0f:15:63:83:e7:b6:c3:19:c8:f8:b7:24:cb:7f:97:
                    16:39:9a:55:b9:6b:21:ef:45:6b:aa:83:bb:bd:94:
                    be:52:cc:57:db:8e:6c:b6:9d:20:d4:8a:9c:69:50:
                    71:a2:28:93:ab:e5:14:f0:3a:f4:d1:b8:ce:a2:88:
                    a0:28:5e:df:57:ed:0a:fa:53:aa:22:f7:81:bc:24:
                    fd:80:18:9e:f6:2f:8b:09:14:71:fb:82:2a:10:49:
                    03:4f:21:7f:e8:c8:ba:fe:3a:6d:df:dc:9a:f4:97:
                    ae:7d:bc:ff:f1:24:54:46:35:53:6f:be:8c:24:2c:
                    61:d7:1a:c4:f5:7d:17:99:35:12:c3:b0:28:09:d4:
                    64:ea:f1:e1:dd:96:b8:90:b4:d5:9f:29:c9:68:ec:
                    1c:45:13:2f:1b:da:b0:d5:3a:e0:52:a6:fc:75:7a:
                    ef:a1:33:0e:61:ca:20:25:8e:ab:db:78:63:eb:35:
                    83:84:8d:9d:14:a8:6c:38:b4:94:af:5f:60:79:17:
                    21:22:f3:f9:00:0a:ae:23:5b:27:97:aa:d4:fe:a4:
                    27:4d:b8:eb:b9:d3:fa:b3:32:9b:76:1a:87:9b:45:
                    d4:62:9b:d2:c7:19:d3:ca:b8:93:85:6b:66:21:cb:
                    d0:ba:3b:58:23:45:3a:7c:f6:53:c4:89:5f:dc:ee:
                    62:6a:23:c6:07:0c:7d:2b:00:a1:b9:b6:92:24:01:
                    8f:a9:f8:e4:27:e2:c9:41:1e:2f:2f:4b:eb:ab:f9:
                    26:4e:f7:1a:1c:b8:ed:c2:d2:47:ab:91:65:f4:0e:
                    0b:9c:db:2e:b1:2a:90:3d:12:a2:a1:ac:43:7a:a5:
                    02:e5:aa:b7:f3:eb:63:a6:25:4b:1e:57:c0:7b:48:
                    1f:0f:e4:4c:42:7f:22:4f:9e:16:e8:25:29:a6:0d:
                    8a:17:1c:54:f5:f8:75:ac:d1:34:94:15:01:5e:32:
                    3a:3c:94:5c:51:43:11:eb:aa:d0:cd:bb:5a:e3:e4:
                    10:ab:cf
                Exponent: 65537 (0x10001)
        X509v3 extensions:
            X509v3 Subject Key Identifier: 
                E6:A4:91:1A:E1:B6:65:E4:AF:0B:8B:F6:58:42:BB:10:7C:B9:F9:88
            Netscape Comment: 
                Drone Identity Certificate
            X509v3 Basic Constraints: critical
                CA:FALSE
            X509v3 Authority Key Identifier: 
                FE:B9:EE:E7:DD:2A:53:81:8E:53:1C:A7:EC:34:39:22:FB:63:D9:A4
            X509v3 Key Usage: critical
                Digital Signature, Key Encipherment
            X509v3 Extended Key Usage: 
                TLS Web Client Authentication
    Signature Algorithm: sha256WithRSAEncryption
    Signature Value:
        4d:bd:68:00:24:c5:8e:1a:fe:90:e9:bd:f7:7f:36:51:30:ee:
        e8:75:69:a5:79:81:67:c0:fe:73:49:b0:ea:cb:65:ba:86:23:
        99:4b:43:3f:8f:16:bb:74:0f:92:7e:09:bb:6f:42:77:35:4a:
        cd:34:cd:bb:39:2b:79:43:3b:31:aa:92:1f:7d:fe:a7:ed:1a:
        23:47:d5:05:73:83:da:61:e9:db:44:30:2b:c5:60:24:ff:32:
        1d:53:ba:59:69:c4:b8:a6:fe:bb:01:29:6c:32:78:e7:d9:9e:
        d1:af:2a:6a:69:e2:19:4c:3e:c0:72:70:45:3f:ec:c3:53:26:
        98:f5:24:46:14:a8:01:07:81:c8:26:16:48:06:9b:74:19:5c:
        bd:ad:e3:37:b4:ef:04:93:05:08:76:0d:c7:e1:86:8e:ee:8f:
        fa:92:66:09:40:e5:c0:f9:f4:05:45:ea:68:13:03:b4:1c:ed:
        44:f2:0e:46:8f:fe:b9:f4:4d:b6:49:ec:45:a9:0a:ee:d4:68:
        8b:87:4b:ac:67:16:0d:e1:ad:05:94:94:71:91:e6:d5:b8:61:
        b9:bf:59:70:d2:a2:b6:a7:81:85:52:36:ca:5a:94:92:8b:e5:
        68:7a:ee:cd:48:20:03:4d:d0:8c:57:5d:fb:60:44:45:0a:29:
        fb:34:bd:27:4d:c3:2b:78:2c:04:7b:3f:d6:29:f6:47:b7:66:
        ef:7a:bc:18:0e:10:c9:76:68:e0:94:e3:62:9b:d3:5c:18:31:
        47:cf:d6:ac:61:00:c8:32:09:43:85:d2:ac:67:73:e2:27:f6:
        38:60:83:76:cf:3f:37:20:e8:15:df:13:6c:4a:52:ec:32:9e:
        a6:02:3d:73:71:db:19:66:7b:5e:20:d2:81:29:c3:d2:d6:65:
        10:9b:27:18:bd:08:47:ef:fd:d6:3c:91:5c:68:d4:f1:00:7a:
        88:a3:05:64:55:d7:03:b7:fc:5e:1a:6c:d0:c1:ad:c5:c1:d5:
        d9:de:dd:bd:d0:ad:7e:67:1b:36:b4:32:03:3a:9c:8b:8f:e6:
        cb:a3:f2:70:fe:8a:50:ba:82:b4:06:ea:4b:9f:89:b9:0d:5b:
        91:af:cf:a7:3f:40:b4:b0:4b:95:ec:5c:10:22:34:2c:22:0a:
        aa:85:55:7c:2f:de:5e:2e:c8:e9:6e:d8:f2:c2:3e:b6:09:c9:
        21:e0:39:ce:b6:f1:39:94:c0:38:6b:7a:1a:a5:18:6b:4f:37:
        6b:93:3e:89:a9:10:f7:9d:08:98:35:89:7d:dd:ee:84:2c:48:
        71:f9:0a:d6:0b:fb:33:81:e2:4d:09:d6:eb:4f:dc:09:65:fe:
        9a:b8:1e:d2:b8:68:bd:ec
-----BEGIN CERTIFICATE-----
MIIFwTCCA6mgAwIBAgICEAIwDQYJKoZIhvcNAQELBQAwVjELMAkGA1UEBhMCRlIx
FDASBgNVBAoMC0Ryb25lIEZsZWV0MREwDwYDVQQLDAhTZWN1cml0eTEeMBwGA1UE
AwwVRHJvbmUgaW50ZXJtZWRpYXRlIENBMB4XDTI2MDMxMTE1MjI0NloXDTI3MDMx
MTE1MjI0NlowTTELMAkGA1UEBhMCRlIxFDASBgNVBAoMC0Ryb25lIEZsZWV0MREw
DwYDVQQLDAhTZWN1cml0eTEVMBMGA1UEAwwMZHJvbmUtZnItMDAxMIICIjANBgkq
hkiG9w0BAQEFAAOCAg8AMIICCgKCAgEA07ggRhqqhJq3uxhNotpvDVgbzyfd0/ao
nV14FZ2IKex1QXAfn6Tt+JxIIRYEECNk8T/fPNaxHNkB4nIF8/S8NCr5iTJJaKV5
HmJCNQU0tmDg0OW/htNNsENFSx3b0MYn8CFarU3NmXgfyH/9quy3kW0PNiezxYm7
rmgt0neZT5HlRE/zbDoPFWOD57bDGcj4tyTLf5cWOZpVuWsh70VrqoO7vZS+UsxX
245stp0g1IqcaVBxoiiTq+UU8Dr00bjOooigKF7fV+0K+lOqIveBvCT9gBie9i+L
CRRx+4IqEEkDTyF/6Mi6/jpt39ya9Jeufbz/8SRURjVTb76MJCxh1xrE9X0XmTUS
w7AoCdRk6vHh3Za4kLTVnynJaOwcRRMvG9qw1TrgUqb8dXrvoTMOYcogJY6r23hj
6zWDhI2dFKhsOLSUr19geRchIvP5AAquI1snl6rU/qQnTbjrudP6szKbdhqHm0XU
YpvSxxnTyriThWtmIcvQujtYI0U6fPZTxIlf3O5iaiPGBwx9KwChubaSJAGPqfjk
J+LJQR4vL0vrq/kmTvcaHLjtwtJHq5Fl9A4LnNsusSqQPRKioaxDeqUC5aq38+tj
piVLHlfAe0gfD+RMQn8iT54W6CUppg2KFxxU9fh1rNE0lBUBXjI6PJRcUUMR66rQ
zbta4+QQq88CAwEAAaOBoTCBnjAdBgNVHQ4EFgQU5qSRGuG2ZeSvC4v2WEK7EHy5
+YgwKQYJYIZIAYb4QgENBBwWGkRyb25lIElkZW50aXR5IENlcnRpZmljYXRlMAwG
A1UdEwEB/wQCMAAwHwYDVR0jBBgwFoAU/rnu590qU4GOUxyn7DQ5Ivtj2aQwDgYD
VR0PAQH/BAQDAgWgMBMGA1UdJQQMMAoGCCsGAQUFBwMCMA0GCSqGSIb3DQEBCwUA
A4ICAQBNvWgAJMWOGv6Q6b33fzZRMO7odWmleYFnwP5zSbDqy2W6hiOZS0M/jxa7
dA+Sfgm7b0J3NUrNNM27OSt5QzsxqpIfff6n7RojR9UFc4PaYenbRDArxWAk/zId
U7pZacS4pv67ASlsMnjn2Z7RrypqaeIZTD7AcnBFP+zDUyaY9SRGFKgBB4HIJhZI
Bpt0GVy9reM3tO8EkwUIdg3H4YaO7o/6kmYJQOXA+fQFRepoEwO0HO1E8g5Gj/65
9E22SexFqQru1GiLh0usZxYN4a0FlJRxkebVuGG5v1lw0qK2p4GFUjbKWpSSi+Vo
eu7NSCADTdCMV137YERFCin7NL0nTcMreCwEez/WKfZHt2bverwYDhDJdmjglONi
m9NcGDFHz9asYQDIMglDhdKsZ3PiJ/Y4YIN2zz83IOgV3xNsSlLsMp6mAj1zcdsZ
ZnteINKBKcPS1mUQmycYvQhH7/3WPJFcaNTxAHqIowVkVdcDt/xeGmzQwa3FwdXZ
3t290K1+Zxs2tDIDOpyLj+bLo/Jw/opQuoK0BupLn4m5DVuRr8+nP0C0sEuV7FwQ
IjQsIgqqhVV8L95eLsjpbtjywj62Cckh4DnOtvE5lMA4a3oapRhrTzdrkz6JqRD3
nQiYNYl93e6ELEhx+QrWC/szgeJNCdbrT9wJZf6auB7SuGi97A==
-----END CERTIFICATE-----
