Certificate:
    Data:
        Version: 3 (0x2)
        Serial Number: 4099 (0x1003)
        Signature Algorithm: sha256WithRSAEncryption
        Issuer: C=FR, O=Drone Fleet, OU=Security, CN=Drone intermediate CA
        Validity
            Not Before: Mar 11 15:22:46 2026 GMT
            Not After : Mar 11 15:22:46 2027 GMT
        Subject: C=FR, O=Drone Fleet, OU=Security, CN=drone-fr-002
        Subject Public Key Info:
            Public Key Algorithm: rsaEncryption
                Public-Key: (4096 bit)
                Modulus:
                    00:9b:c0:a3:7b:19:30:28:b7:56:94:88:54:0d:3e:
                    c7:31:33:57:0f:a9:dc:e7:0c:8d:ce:d1:fa:7f:2c:
                    ae:38:ee:7d:9e:e7:ab:76:50:bc:11:76:a3:6c:c7:
                    d1:5b:91:e8:d7:03:44:a1:65:aa:bd:0d:0f:15:71:
                    af:19:ec:7c:1b:dd:f8:60:92:ed:d5:79:f9:91:5e:
                    53:af:00:f0:26:e4:4b:8b:49:dd:3d:f9:39:c3:88:
                    ee:3b:ef:f5:76:be:34:15:9b:a7:8c:4a:f5:dc:4d:
                    2f:60:64:87:68:a9:11:3b:44:7b:61:a8:f3:1a:5b:
                    c9:55:a0:45:0e:56:86:72:ec:8b:f7:b3:5f:93:a8:
                    e7:6f:77:d1:93:22:64:16:42:a5:76:d3:fe:7b:7d:
                    7d:b3:a6:ae:59:32:7d:17:eb:fe:17:c7:50:d3:2d:
                    b0:e1:03:3b:db:44:cf:ac:00:9c:5b:55:df:39:6a:
                    e0:77:86:32:86:02:7d:4f:5e:df:be:6a:12:57:fa:
                    c6:38:1f:9d:4d:7b:96:7c:b9:6b:07:b0:2d:4f:89:
                    b6:90:d2:3f:19:d9:02:39:12:f1:98:ea:34:d8:f0:
                    93:d4:eb:7f:b2:52:49:ca:f2:c4:1e:0b:72:24:61:
                    7e:3f:42:1e:ab:f0:24:14:51:d3:85:d5:35:5b:bf:
                    00:d2:b0:32:cc:2b:9b:be:c7:a6:28:79:82:fc:62:
                    af:64:dd:78:82:21:53:00:04:44:f6:ca:d0:74:d0:
                    74:91:2c:da:da:23:07:da:9b:d3:bb:6c:dd:5f:d8:
                    6d:11:09:f9:d8:7a:88:29:73:d2:5f:cb:37:49:11:
                    43:b3:a7:c5:43:f1:2e:3f:81:2b:cf:5e:9a:bb:90:
                    68:4e:47:80:fb:1d:98:2a:84:2f:2f:a4:96:84:4a:
                    b5:bf:80:3e:02:94:4c:e8:2b:00:bd:8f:1b:12:9f:
                    29:0e:85:e2:52:a1:b6:50:70:f6:ca:09:bf:b2:99:
                    9a:ce:3a:cf:c7:37:4f:16:33:67:f5:b3:f7:a1:a6:
                    78:8d:ae:15:a7:11:07:f4:30:c0:28:90:22:7f:5b:
                    0d:50:09:3a:54:22:06:10:fd:71:33:00:72:cc:54:
                    d0:4a:0e:63:9a:ae:2a:72:db:67:6d:09:47:04:41:
                    00:0e:9c:54:96:e4:71:80:44:6d:ab:8f:5a:17:da:
                    86:b8:81:f8:31:d2:bf:ff:ac:a0:c6:4e:74:df:9f:
                    d7:c0:f7:dc:d1:50:c9:4c:ef:78:28:a1:c7:3d:0d:
                    4a:2a:5a:d9:41:82:10:8c:de:f5:f7:6f:e5:20:95:
                    33:cc:16:4d:00:40:ac:c9:6d:db:e4:2f:3a:d5:a5:
                    4a:ec:bd
                Exponent: 65537 (0x10001)
        X509v3 extensions:
            X509v3 Subject Key Identifier: 
                65:44:47:EF:60:ED:EF:F1:BF:00:A3:AB:08:FB:81:60:E0:F2:86:31
            Netscape Comment: 
                Drone Identity Certificate
            X509v3 Basic Constraints: critical
                CA:FALSE
            X509v3 Authority Key Identifier: 
                FE:B9:EE:E7:DD:2A:53:81:8E:53:1C:A7:EC:34:39:22:FB:63:D9:A4
            X509v3 Key Usage: critical
                Digital Signature, Key Encipherment
            X509v3 Extended Key Usage: 
                TLS Web Client Authentication
    Signature Algorithm: sha256WithRSAEncryption
    Signature Value:
        b4:a3:90:07:79:9f:23:76:d3:f6:e2:8a:65:8c:1e:83:e4:f4:
        5e:2b:60:38:7b:c6:03:cc:0e:f2:3d:e4:92:2a:df:a4:7e:30:
        1c:77:7a:ff:26:83:c3:d6:e5:c7:a8:3e:f6:cf:e1:27:3d:7c:
        b1:b2:7e:12:c5:f4:e4:1c:f6:34:48:81:11:15:41:9f:5d:8e:
        c8:f5:56:a1:ce:8c:c7:21:bf:c5:ec:7c:27:f8:22:4c:1c:75:
        b5:53:f9:19:35:46:2d:33:3e:cd:93:27:14:88:73:ad:64:dd:
        97:34:7c:8b:0c:67:b8:98:34:fd:cf:b8:c8:be:e4:b5:20:d9:
        88:05:b6:3d:95:8d:ec:14:50:0a:b2:82:2a:fa:ee:02:69:68:
        d7:ab:cb:5c:b9:da:fb:66:fe:30:7d:05:e7:a2:64:be:f4:4b:
        f9:73:14:d2:d3:a9:a6:ce:83:6a:e8:16:59:0e:d8:c2:ae:36:
        df:1c:05:7d:a4:8c:50:ed:7f:85:bc:37:d1:ea:93:94:fb:95:
        13:fb:d2:43:e1:5b:3b:a2:be:a4:5e:18:17:fc:72:64:0f:f3:
        60:29:0f:a1:dd:b7:dd:42:cc:5f:99:96:34:b5:db:1e:48:db:
        26:63:c3:80:a0:16:f4:02:15:fe:56:16:1a:f2:c4:38:39:23:
        bf:cd:f7:36:c3:ef:6b:15:00:88:ba:f5:51:58:49:48:b0:6d:
        df:f6:59:06:4d:49:3a:90:09:72:54:e3:01:18:02:95:09:4b:
        81:43:a1:e4:25:d3:a5:60:a0:da:df:15:8b:e2:a7:e7:0e:cb:
        18:1c:45:4e:70:a6:1f:6a:d3:3a:6b:2f:25:a6:1b:6d:7e:f0:
        7f:63:85:96:c9:1d:d5:f1:cd:46:d7:34:90:80:dd:47:17:85:
        91:9f:98:cb:97:26:72:ec:df:bb:5b:27:4a:39:e3:74:60:62:
        1d:2c:8c:d4:87:bd:cf:13:03:1e:9a:0f:27:f8:c9:1b:ae:9e:
        bd:7e:fc:36:41:17:3e:0e:f1:ff:67:9e:66:9f:0b:30:d0:07:
        fe:07:4a:28:40:c9:57:c7:96:48:61:ef:96:a7:84:b9:61:4d:
        af:a7:02:aa:75:b7:57:df:93:8a:4a:c8:62:44:44:70:29:15:
        5a:6a:65:05:96:37:63:c8:22:04:d3:db:dd:34:aa:ed:00:e6:
        73:24:4f:f7:61:d9:a2:82:7c:78:8e:1d:73:ef:2e:38:f7:fb:
        de:d8:29:bf:cb:eb:f4:fa:be:78:31:49:78:4d:a2:bd:86:a0:
        7f:4a:23:7c:58:8e:a5:1d:25:9e:16:1f:0c:65:c7:cd:ab:51:
        c5:86:0e:10:eb:c3:7b:b0
-----BEGIN CERTIFICATE-----
MIIFwTCCA6mgAwIBAgICEAMwDQYJKoZIhvcNAQELBQAwVjELMAkGA1UEBhMCRlIx
FDASBgNVBAoMC0Ryb25lIEZsZWV0MREwDwYDVQQLDAhTZWN1cml0eTEeMBwGA1UE
AwwVRHJvbmUgaW50ZXJtZWRpYXRlIENBMB4XDTI2MDMxMTE1MjI0NloXDTI3MDMx
MTE1MjI0NlowTTELMAkGA1UEBhMCRlIxFDASBgNVBAoMC0Ryb25lIEZsZWV0MREw
DwYDVQQLDAhTZWN1cml0eTEVMBMGA1UEAwwMZHJvbmUtZnItMDAyMIICIjANBgkq
hkiG9w0BAQEFAAOCAg8AMIICCgKCAgEAm8CjexkwKLdWlIhUDT7HMTNXD6nc5wyN
ztH6fyyuOO59nuerdlC8EXajbMfRW5Ho1wNEoWWqvQ0PFXGvGex8G934YJLt1Xn5
kV5TrwDwJuRLi0ndPfk5w4juO+/1dr40FZunjEr13E0vYGSHaKkRO0R7YajzGlvJ
VaBFDlaGcuyL97Nfk6jnb3fRkyJkFkKldtP+e319s6auWTJ9F+v+F8dQ0y2w4QM7
20TPrACcW1XfOWrgd4YyhgJ9T17fvmoSV/rGOB+dTXuWfLlrB7AtT4m2kNI/GdkC
ORLxmOo02PCT1Ot/slJJyvLEHgtyJGF+P0Ieq/AkFFHThdU1W78A0rAyzCubvsem
KHmC/GKvZN14giFTAARE9srQdNB0kSza2iMH2pvTu2zdX9htEQn52HqIKXPSX8s3
SRFDs6fFQ/EuP4Erz16au5BoTkeA+x2YKoQvL6SWhEq1v4A+ApRM6CsAvY8bEp8p
DoXiUqG2UHD2ygm/spmazjrPxzdPFjNn9bP3oaZ4ja4VpxEH9DDAKJAif1sNUAk6
VCIGEP1xMwByzFTQSg5jmq4qcttnbQlHBEEADpxUluRxgERtq49aF9qGuIH4MdK/
/6ygxk5035/XwPfc0VDJTO94KKHHPQ1KKlrZQYIQjN7192/lIJUzzBZNAECsyW3b
5C861aVK7L0CAwEAAaOBoTCBnjAdBgNVHQ4EFgQUZURH72Dt7/G/AKOrCPuBYODy
hjEwKQYJYIZIAYb4QgENBBwWGkRyb25lIElkZW50aXR5IENlcnRpZmljYXRlMAwG
A1UdEwEB/wQCMAAwHwYDVR0jBBgwFoAU/rnu590qU4GOUxyn7DQ5Ivtj2aQwDgYD
VR0PAQH/BAQDAgWgMBMGA1UdJQQMMAoGCCsGAQUFBwMCMA0GCSqGSIb3DQEBCwUA
A4ICAQC0o5AHeZ8jdtP24opljB6D5PReK2A4e8YDzA7yPeSSKt+kfjAcd3r/JoPD
1uXHqD72z+EnPXyxsn4SxfTkHPY0SIERFUGfXY7I9VahzozHIb/F7Hwn+CJMHHW1
U/kZNUYtMz7NkycUiHOtZN2XNHyLDGe4mDT9z7jIvuS1INmIBbY9lY3sFFAKsoIq
+u4CaWjXq8tcudr7Zv4wfQXnomS+9Ev5cxTS06mmzoNq6BZZDtjCrjbfHAV9pIxQ
7X+FvDfR6pOU+5UT+9JD4Vs7or6kXhgX/HJkD/NgKQ+h3bfdQsxfmZY0tdseSNsm
Y8OAoBb0AhX+VhYa8sQ4OSO/zfc2w+9rFQCIuvVRWElIsG3f9lkGTUk6kAlyVOMB
GAKVCUuBQ6HkJdOlYKDa3xWL4qfnDssYHEVOcKYfatM6ay8lphttfvB/Y4WWyR3V
8c1G1zSQgN1HF4WRn5jLlyZy7N+7WydKOeN0YGIdLIzUh73PEwMemg8n+Mkbrp69
fvw2QRc+DvH/Z55mnwsw0Af+B0ooQMlXx5ZIYe+Wp4S5YU2vpwKqdbdX35OKSshi
RERwKRVaamUFljdjyCIE09vdNKrtAOZzJE/3Ydmignx4jh1z7y449/ve2Cm/y+v0
+r54MUl4TaK9hqB/SiN8WI6lHSWeFh8MZcfNq1HFhg4Q68N7sA==
-----END CERTIFICATE-----
