Certificate:
    Data:
        Version: 3 (0x2)
        Serial Number: 4098 (0x1002)
        Signature Algorithm: sha256WithRSAEncryption
        Issuer: C=FR, O=Drone Fleet, OU=Security, CN=Drone intermediate CA
        Validity
            Not Before: Mar  3 08:34:02 2026 GMT
            Not After : Mar  3 08:34:02 2027 GMT
        Subject: C=FR, O=Drone Fleet, OU=Security, CN=drone-fr-002
        Subject Public Key Info:
            Public Key Algorithm: rsaEncryption
                Public-Key: (4096 bit)
                Modulus:
                    00:dd:30:67:6b:db:68:b0:b7:88:7f:93:de:6d:54:
                    99:08:06:20:e5:f9:9e:11:aa:59:16:b8:28:32:6c:
                    27:da:6f:52:1e:e8:41:e3:9c:0a:b4:b9:a2:24:7a:
                    69:c9:f8:95:bd:a2:a3:15:12:75:07:f1:12:bf:ef:
                    8a:3c:0d:d3:33:b3:44:c9:66:28:6c:0d:c6:53:ff:
                    78:aa:b1:69:d2:16:fd:13:63:a8:24:89:9b:4a:08:
                    cd:df:83:f3:c1:20:5b:f7:cd:d8:34:19:4e:ef:e0:
                    3e:e9:86:fc:12:4d:46:f8:e8:06:cc:6b:00:07:76:
                    ae:cc:85:65:76:41:f6:2c:72:1e:ff:d9:33:0a:4b:
                    34:31:5a:38:58:fd:1c:7a:8e:9f:c1:97:b9:2d:ba:
                    81:4e:f4:6d:3b:88:d0:1c:39:14:b3:94:72:21:72:
                    36:59:df:88:41:c3:81:8e:65:1f:c7:6f:b3:9a:7e:
                    dd:7d:4b:e8:6e:4d:f1:ab:58:2d:09:f0:b0:d1:01:
                    96:d7:45:26:48:5e:97:65:ad:01:f3:fd:fb:51:20:
                    bc:3b:8f:79:09:55:8a:63:15:b2:ed:c6:94:80:43:
                    25:41:39:35:e5:e8:87:49:f7:8a:b7:b7:d6:89:dd:
                    bf:a8:bc:c0:21:e7:02:a9:f9:b7:4f:3a:1a:d8:3e:
                    8a:32:aa:a3:85:84:97:a8:26:8f:fe:f7:52:9d:82:
                    88:6f:ed:10:a9:54:a3:bc:8e:75:db:f0:08:b9:5f:
                    03:28:f8:38:ea:0f:34:65:53:0b:37:15:ff:50:40:
                    0d:33:b7:50:37:a0:ac:70:6c:90:c7:fe:99:5c:34:
                    f8:d5:8f:32:8a:eb:88:2a:4a:3a:9a:18:89:17:6f:
                    4b:73:d3:5e:8d:63:c3:45:4d:a2:ac:db:4c:0a:1b:
                    7d:02:14:44:45:01:94:8a:b6:c9:b7:aa:d9:0b:70:
                    d0:d9:86:fd:46:09:37:d3:75:af:d4:1c:e5:ac:24:
                    ad:8d:ea:f2:77:12:d8:ac:22:83:10:d3:cf:1b:67:
                    eb:97:41:34:91:d6:52:0d:e3:f8:07:7b:a0:59:ec:
                    ed:ad:c3:d0:33:9f:80:ec:02:dc:de:02:aa:a4:28:
                    76:15:31:d3:98:05:dd:3d:d5:e2:88:b1:cc:45:6e:
                    43:c8:3e:cd:3b:68:9b:76:06:d0:94:34:a2:0a:a0:
                    fe:a6:87:c2:4b:c5:c2:83:e7:52:bd:b0:9e:f4:e5:
                    c2:35:fd:49:60:ba:6b:f0:b0:38:1c:11:b7:b3:6d:
                    68:3a:e8:bf:9d:a9:5c:bd:0d:83:3e:7c:42:a9:68:
                    a3:29:d6:50:43:1a:07:38:f7:e1:ab:8c:04:55:72:
                    88:14:0f
                Exponent: 65537 (0x10001)
        X509v3 extensions:
            X509v3 Subject Key Identifier: 
                C2:7E:3E:24:C9:D0:29:DD:D7:35:AA:62:AB:7D:5C:5A:10:74:EA:C5
            Netscape Comment: 
                Drone Identity Certificate
            X509v3 Basic Constraints: critical
                CA:FALSE
            X509v3 Authority Key Identifier: 
                37:E5:CC:AF:DF:FB:05:E4:AC:97:60:CA:98:74:7D:BF:12:F5:41:3D
            X509v3 Key Usage: critical
                Digital Signature, Key Encipherment
            X509v3 Extended Key Usage: 
                TLS Web Client Authentication
    Signature Algorithm: sha256WithRSAEncryption
    Signature Value:
        a2:4c:c7:fb:0a:b6:4c:3e:ad:14:b8:5f:2a:b6:4c:b4:9a:c6:
        15:54:5e:5b:e5:21:b5:c7:60:8e:18:f0:56:f4:af:1b:44:43:
        0c:6e:c3:63:a5:c6:c8:0f:80:59:02:42:de:ba:a9:7b:a9:48:
        67:30:6c:ab:82:b4:7b:34:57:82:b7:ef:fb:eb:48:c8:b9:ac:
        39:e2:7c:6a:47:fd:b0:c2:30:88:cb:8e:a2:7b:51:68:c8:29:
        f4:a8:e9:62:89:d6:fd:5e:1c:20:34:82:5f:7a:af:91:95:ca:
        1b:1a:04:34:fb:e6:3b:19:3f:7c:26:0f:62:79:82:d2:21:9c:
        c9:3c:e4:85:77:4a:5d:4e:48:dc:45:40:db:a7:7a:31:58:9b:
        71:e1:99:37:ef:f8:88:72:e1:fb:d6:1f:df:0a:9b:7c:e5:62:
        d2:1c:d6:87:86:92:3b:cb:41:28:da:42:f0:0a:8c:b7:aa:7d:
        00:47:0a:61:9d:be:aa:ef:41:fb:c9:7e:10:8e:66:d8:fa:c8:
        39:e0:6a:45:1a:e2:20:53:eb:2c:e9:18:c9:f8:78:6e:74:99:
        c6:cb:95:81:13:b8:3c:e3:0e:e5:8d:48:be:6c:ac:4f:c7:26:
        7b:a5:fe:6a:99:6e:e5:0c:07:5c:18:91:2b:64:4f:c9:b9:ff:
        3e:ab:59:05:c7:24:84:87:34:c8:94:73:0b:47:f3:fe:5d:e0:
        c3:c1:29:4b:e5:d3:c1:53:37:f4:60:87:88:9d:42:74:3d:bd:
        aa:96:19:7c:db:91:76:5c:58:a5:08:52:14:48:cc:4c:3d:b6:
        a0:7d:c1:c1:dc:f3:54:86:e1:26:53:ff:31:9d:1b:dd:fb:94:
        55:68:5c:9a:29:67:81:1f:19:9c:83:2c:01:7a:28:17:6f:23:
        49:bd:83:0e:ae:2c:59:e5:93:e4:7e:6e:61:04:3f:4b:02:f5:
        32:25:22:fe:24:5e:69:b9:6d:2e:ab:02:22:05:d4:d8:e6:5c:
        3b:b3:a5:88:d1:61:a7:78:50:4b:94:62:21:b7:3f:da:d6:27:
        cf:80:c9:db:73:cf:71:79:60:5d:2b:ca:d0:10:e7:86:30:43:
        e2:ae:20:62:21:ea:ab:f9:43:f8:73:2f:cd:0c:65:32:7a:b1:
        da:f2:2c:ec:49:5a:38:e5:62:f5:4b:43:56:87:b6:24:58:1f:
        1a:5d:a4:90:c0:ad:6d:87:d8:5b:14:6a:0c:d6:f1:78:37:b3:
        f1:ef:60:da:2e:9c:9c:65:58:de:63:4f:d1:9f:fe:e6:b4:09:
        d1:29:71:75:4b:83:de:2d:3d:e8:fa:5b:ab:a5:6b:55:f4:10:
        ea:3d:63:b0:d9:85:6a:80
-----BEGIN CERTIFICATE-----
MIIFwTCCA6mgAwIBAgICEAIwDQYJKoZIhvcNAQELBQAwVjELMAkGA1UEBhMCRlIx
FDASBgNVBAoMC0Ryb25lIEZsZWV0MREwDwYDVQQLDAhTZWN1cml0eTEeMBwGA1UE
AwwVRHJvbmUgaW50ZXJtZWRpYXRlIENBMB4XDTI2MDMwMzA4MzQwMloXDTI3MDMw
MzA4MzQwMlowTTELMAkGA1UEBhMCRlIxFDASBgNVBAoMC0Ryb25lIEZsZWV0MREw
DwYDVQQLDAhTZWN1cml0eTEVMBMGA1UEAwwMZHJvbmUtZnItMDAyMIICIjANBgkq
hkiG9w0BAQEFAAOCAg8AMIICCgKCAgEA3TBna9tosLeIf5PebVSZCAYg5fmeEapZ
FrgoMmwn2m9SHuhB45wKtLmiJHppyfiVvaKjFRJ1B/ESv++KPA3TM7NEyWYobA3G
U/94qrFp0hb9E2OoJImbSgjN34PzwSBb983YNBlO7+A+6Yb8Ek1G+OgGzGsAB3au
zIVldkH2LHIe/9kzCks0MVo4WP0ceo6fwZe5LbqBTvRtO4jQHDkUs5RyIXI2Wd+I
QcOBjmUfx2+zmn7dfUvobk3xq1gtCfCw0QGW10UmSF6XZa0B8/37USC8O495CVWK
YxWy7caUgEMlQTk15eiHSfeKt7fWid2/qLzAIecCqfm3Tzoa2D6KMqqjhYSXqCaP
/vdSnYKIb+0QqVSjvI512/AIuV8DKPg46g80ZVMLNxX/UEANM7dQN6CscGyQx/6Z
XDT41Y8yiuuIKko6mhiJF29Lc9NejWPDRU2irNtMCht9AhRERQGUirbJt6rZC3DQ
2Yb9Rgk303Wv1BzlrCStjerydxLYrCKDENPPG2frl0E0kdZSDeP4B3ugWeztrcPQ
M5+A7ALc3gKqpCh2FTHTmAXdPdXiiLHMRW5DyD7NO2ibdgbQlDSiCqD+pofCS8XC
g+dSvbCe9OXCNf1JYLpr8LA4HBG3s21oOui/nalcvQ2DPnxCqWijKdZQQxoHOPfh
q4wEVXKIFA8CAwEAAaOBoTCBnjAdBgNVHQ4EFgQUwn4+JMnQKd3XNapiq31cWhB0
6sUwKQYJYIZIAYb4QgENBBwWGkRyb25lIElkZW50aXR5IENlcnRpZmljYXRlMAwG
A1UdEwEB/wQCMAAwHwYDVR0jBBgwFoAUN+XMr9/7BeSsl2DKmHR9vxL1QT0wDgYD
VR0PAQH/BAQDAgWgMBMGA1UdJQQMMAoGCCsGAQUFBwMCMA0GCSqGSIb3DQEBCwUA
A4ICAQCiTMf7CrZMPq0UuF8qtky0msYVVF5b5SG1x2COGPBW9K8bREMMbsNjpcbI
D4BZAkLeuql7qUhnMGyrgrR7NFeCt+/760jIuaw54nxqR/2wwjCIy46ie1FoyCn0
qOliidb9XhwgNIJfeq+RlcobGgQ0++Y7GT98Jg9ieYLSIZzJPOSFd0pdTkjcRUDb
p3oxWJtx4Zk37/iIcuH71h/fCpt85WLSHNaHhpI7y0Eo2kLwCoy3qn0ARwphnb6q
70H7yX4QjmbY+sg54GpFGuIgU+ss6RjJ+HhudJnGy5WBE7g84w7ljUi+bKxPxyZ7
pf5qmW7lDAdcGJErZE/Juf8+q1kFxySEhzTIlHMLR/P+XeDDwSlL5dPBUzf0YIeI
nUJ0Pb2qlhl825F2XFilCFIUSMxMPbagfcHB3PNUhuEmU/8xnRvd+5RVaFyaKWeB
HxmcgywBeigXbyNJvYMOrixZ5ZPkfm5hBD9LAvUyJSL+JF5puW0uqwIiBdTY5lw7
s6WI0WGneFBLlGIhtz/a1ifPgMnbc89xeWBdK8rQEOeGMEPiriBiIeqr+UP4cy/N
DGUyerHa8izsSVo45WL1S0NWh7YkWB8aXaSQwK1th9hbFGoM1vF4N7Px72DaLpyc
ZVjeY0/Rn/7mtAnRKXF1S4PeLT3o+lurpWtV9BDqPWOw2YVqgA==
-----END CERTIFICATE-----
