Certificate:
    Data:
        Version: 3 (0x2)
        Serial Number: 4097 (0x1001)
        Signature Algorithm: sha256WithRSAEncryption
        Issuer: C=FR, O=Drone Fleet, OU=Security, CN=Drone intermediate CA
        Validity
            Not Before: Mar 11 15:22:46 2026 GMT
            Not After : Mar 11 15:22:46 2027 GMT
        Subject: C=FR, O=Drone Fleet, OU=Security, CN=drone-fr-000
        Subject Public Key Info:
            Public Key Algorithm: rsaEncryption
                Public-Key: (4096 bit)
                Modulus:
                    00:e7:c1:68:e7:73:a9:4f:7d:a2:13:94:e6:60:c5:
                    15:61:0f:7d:19:17:b0:18:42:91:8a:21:51:2a:f1:
                    f9:ca:1c:ba:74:45:7f:b0:43:b6:e6:51:61:9e:e7:
                    85:46:f6:85:80:6c:12:21:f4:4b:a7:29:84:6a:bc:
                    01:4c:34:da:4b:f0:48:ca:9a:4c:8c:30:8b:81:90:
                    27:2c:7a:41:83:4b:15:70:68:40:9e:4d:79:eb:1c:
                    19:4d:f5:5a:28:a2:52:ee:70:81:c2:66:16:3e:9c:
                    5a:a1:da:52:da:78:56:c2:52:58:e9:1a:a0:c9:70:
                    ef:b2:7c:37:79:3d:37:29:cf:2a:3f:07:90:be:8d:
                    33:93:df:7d:5a:0e:48:bb:6b:9c:f3:e1:d2:f6:76:
                    b4:7e:37:4f:98:af:ae:b5:77:b4:68:5d:d3:9b:6c:
                    1a:b7:4c:ba:1e:81:5c:10:0c:2d:a4:40:6f:be:d1:
                    4d:2b:b4:1d:b3:7d:69:5d:57:14:20:5b:1f:c2:f7:
                    f7:6c:3e:77:ae:a3:ac:d4:61:ce:29:21:0c:60:ce:
                    6c:9f:1b:a9:67:af:74:79:a9:10:17:0a:89:5e:d2:
                    b3:56:68:c8:8e:a7:4a:6b:fe:e0:b2:a2:a1:1b:d6:
                    8d:a1:d7:e0:03:6e:f9:5e:55:8d:50:9f:3a:2a:cd:
                    ff:f4:f3:da:17:86:bd:3c:ef:8a:ff:89:b8:8a:72:
                    73:1a:c3:cb:78:a7:35:fb:31:42:3b:a7:fd:72:a9:
                    2c:a9:20:85:8a:3d:70:8b:72:4b:80:e2:02:87:ee:
                    16:6a:d9:c1:e2:82:28:02:a1:17:04:be:b7:ee:05:
                    a0:09:66:50:ec:0d:89:1e:f1:08:6d:10:ee:f6:0a:
                    ee:0b:77:c3:51:2c:a9:13:f0:78:36:44:0a:00:37:
                    a9:45:18:23:b6:6a:f4:7e:3f:c0:93:76:89:fa:de:
                    2f:32:53:3d:83:55:03:ce:36:1e:89:25:a0:4a:24:
                    18:80:70:98:ec:27:3a:75:b1:fd:3d:8f:18:d1:f1:
                    33:00:12:cf:ab:23:a5:09:e2:93:1f:26:be:ed:e8:
                    92:ca:8f:84:2a:bc:a5:7a:9f:a3:b8:e2:69:e5:4a:
                    16:68:80:ea:34:e6:92:8e:75:e8:bf:29:81:00:d5:
                    3f:b7:53:eb:ba:60:6f:b5:04:68:9a:f1:26:01:7f:
                    68:77:53:eb:a2:d2:51:94:22:02:17:24:60:07:19:
                    1e:55:6f:cf:47:21:2d:77:8d:ff:50:88:c2:83:5e:
                    96:99:f1:bc:fa:eb:61:4c:cd:a6:4e:45:7f:44:9a:
                    e9:1a:cb:99:57:44:56:97:b0:12:39:23:28:18:19:
                    59:67:35
                Exponent: 65537 (0x10001)
        X509v3 extensions:
            X509v3 Subject Key Identifier: 
                7C:B8:9A:2B:09:38:DC:95:91:BB:37:D5:9D:B9:B5:8F:0E:7A:45:16
            Netscape Comment: 
                Drone Identity Certificate
            X509v3 Basic Constraints: critical
                CA:FALSE
            X509v3 Authority Key Identifier: 
                FE:B9:EE:E7:DD:2A:53:81:8E:53:1C:A7:EC:34:39:22:FB:63:D9:A4
            X509v3 Key Usage: critical
                Digital Signature, Key Encipherment
            X509v3 Extended Key Usage: 
                TLS Web Client Authentication
    Signature Algorithm: sha256WithRSAEncryption
    Signature Value:
        3f:32:40:bf:89:47:ce:fd:ba:1d:01:2c:6f:4c:11:68:a8:18:
        6c:42:2e:c1:1f:4a:a7:87:6d:93:c4:15:f3:19:46:61:f7:5f:
        55:20:27:fd:85:6b:43:19:d4:ce:36:71:4d:62:30:dc:8e:b5:
        d3:a2:7d:fc:5f:d8:4c:ed:b7:0d:1a:84:28:0a:af:59:1f:aa:
        76:d5:6a:c7:39:10:27:12:e9:88:5d:39:00:49:4e:e1:4f:20:
        bf:6c:a0:18:8e:05:c1:fb:6f:b8:03:00:75:91:a2:dd:fb:6b:
        d6:4e:18:bf:91:e7:ab:b3:3e:31:cb:51:d7:ca:f9:d3:94:f6:
        ff:4b:9d:c6:7a:80:0f:5c:fa:ec:4e:e4:82:25:88:46:80:bc:
        11:9e:0a:79:a2:63:c0:d4:da:e4:2a:3f:81:95:b8:74:df:2f:
        9a:5d:ef:88:5b:33:61:04:90:a4:95:c2:b7:76:7a:2e:ec:42:
        79:8c:83:93:87:36:6e:cb:84:42:51:1b:9f:b4:e4:5d:1b:f2:
        fc:ac:ac:02:4d:ec:0f:1d:a6:02:3d:4a:9d:69:8f:f5:83:ef:
        9c:2d:ab:3f:69:db:6b:09:5c:d2:d3:2c:a4:6b:73:a9:45:00:
        0c:f5:dc:66:a2:a7:61:2a:8e:43:3f:64:48:e0:38:33:b2:a4:
        17:16:8f:aa:3f:97:4c:f7:34:dd:e0:7b:3c:cc:db:b3:f7:54:
        5b:ee:f3:75:8a:e3:5f:bf:9e:59:3b:0a:6b:a4:b6:ce:77:75:
        4e:30:9c:8c:e7:62:fc:b3:2a:05:18:34:2b:58:26:c9:e0:f2:
        ef:3c:a6:e5:cd:7b:ff:e4:18:6e:5d:a8:b8:49:c5:3b:a1:9b:
        d7:99:f1:63:16:de:a3:24:d9:47:5a:4f:4e:5d:ee:12:b1:5e:
        01:43:ab:ef:80:76:20:af:3a:2f:ff:6f:1b:12:d8:16:5b:57:
        28:0a:1f:88:2c:05:5b:d4:51:c1:11:d1:86:16:2b:62:44:c2:
        07:2f:dc:e9:3e:7b:cf:de:fa:67:47:db:aa:8e:3c:c8:9d:62:
        39:0a:1c:de:ca:9e:3a:11:54:f6:6a:fc:00:cd:20:f6:01:55:
        ed:f4:04:06:df:e6:fa:67:bc:8c:6a:3e:26:6b:08:26:ba:a6:
        42:72:16:bf:9a:4f:71:ef:0b:ea:14:0b:26:2a:98:14:11:cd:
        48:00:43:7b:4e:a0:32:e3:15:90:d1:d9:26:e9:8b:2e:4b:a7:
        c9:dc:2d:c4:77:70:99:fe:ea:a2:50:a6:87:15:41:38:f1:94:
        c3:56:24:d6:da:dc:8a:9d:f3:39:45:1b:a5:cd:1c:08:cd:a9:
        f5:ef:97:c5:4b:7e:f6:cb
-----BEGIN CERTIFICATE-----
MIIFwTCCA6mgAwIBAgICEAEwDQYJKoZIhvcNAQELBQAwVjELMAkGA1UEBhMCRlIx
FDASBgNVBAoMC0Ryb25lIEZsZWV0MREwDwYDVQQLDAhTZWN1cml0eTEeMBwGA1UE
AwwVRHJvbmUgaW50ZXJtZWRpYXRlIENBMB4XDTI2MDMxMTE1MjI0NloXDTI3MDMx
MTE1MjI0NlowTTELMAkGA1UEBhMCRlIxFDASBgNVBAoMC0Ryb25lIEZsZWV0MREw
DwYDVQQLDAhTZWN1cml0eTEVMBMGA1UEAwwMZHJvbmUtZnItMDAwMIICIjANBgkq
hkiG9w0BAQEFAAOCAg8AMIICCgKCAgEA58Fo53OpT32iE5TmYMUVYQ99GRewGEKR
iiFRKvH5yhy6dEV/sEO25lFhnueFRvaFgGwSIfRLpymEarwBTDTaS/BIyppMjDCL
gZAnLHpBg0sVcGhAnk156xwZTfVaKKJS7nCBwmYWPpxaodpS2nhWwlJY6RqgyXDv
snw3eT03Kc8qPweQvo0zk999Wg5Iu2uc8+HS9na0fjdPmK+utXe0aF3Tm2wat0y6
HoFcEAwtpEBvvtFNK7Qds31pXVcUIFsfwvf3bD53rqOs1GHOKSEMYM5snxupZ690
eakQFwqJXtKzVmjIjqdKa/7gsqKhG9aNodfgA275XlWNUJ86Ks3/9PPaF4a9PO+K
/4m4inJzGsPLeKc1+zFCO6f9cqksqSCFij1wi3JLgOICh+4WatnB4oIoAqEXBL63
7gWgCWZQ7A2JHvEIbRDu9gruC3fDUSypE/B4NkQKADepRRgjtmr0fj/Ak3aJ+t4v
MlM9g1UDzjYeiSWgSiQYgHCY7Cc6dbH9PY8Y0fEzABLPqyOlCeKTHya+7eiSyo+E
Krylep+juOJp5UoWaIDqNOaSjnXovymBANU/t1PrumBvtQRomvEmAX9od1ProtJR
lCICFyRgBxkeVW/PRyEtd43/UIjCg16WmfG8+uthTM2mTkV/RJrpGsuZV0RWl7AS
OSMoGBlZZzUCAwEAAaOBoTCBnjAdBgNVHQ4EFgQUfLiaKwk43JWRuzfVnbm1jw56
RRYwKQYJYIZIAYb4QgENBBwWGkRyb25lIElkZW50aXR5IENlcnRpZmljYXRlMAwG
A1UdEwEB/wQCMAAwHwYDVR0jBBgwFoAU/rnu590qU4GOUxyn7DQ5Ivtj2aQwDgYD
VR0PAQH/BAQDAgWgMBMGA1UdJQQMMAoGCCsGAQUFBwMCMA0GCSqGSIb3DQEBCwUA
A4ICAQA/MkC/iUfO/bodASxvTBFoqBhsQi7BH0qnh22TxBXzGUZh919VICf9hWtD
GdTONnFNYjDcjrXTon38X9hM7bcNGoQoCq9ZH6p21WrHORAnEumIXTkASU7hTyC/
bKAYjgXB+2+4AwB1kaLd+2vWThi/keersz4xy1HXyvnTlPb/S53GeoAPXPrsTuSC
JYhGgLwRngp5omPA1NrkKj+Blbh03y+aXe+IWzNhBJCklcK3dnou7EJ5jIOThzZu
y4RCURuftORdG/L8rKwCTewPHaYCPUqdaY/1g++cLas/adtrCVzS0yyka3OpRQAM
9dxmoqdhKo5DP2RI4DgzsqQXFo+qP5dM9zTd4Hs8zNuz91Rb7vN1iuNfv55ZOwpr
pLbOd3VOMJyM52L8syoFGDQrWCbJ4PLvPKblzXv/5BhuXai4ScU7oZvXmfFjFt6j
JNlHWk9OXe4SsV4BQ6vvgHYgrzov/28bEtgWW1coCh+ILAVb1FHBEdGGFitiRMIH
L9zpPnvP3vpnR9uqjjzInWI5Chzeyp46EVT2avwAzSD2AVXt9AQG3+b6Z7yMaj4m
awgmuqZCcha/mk9x7wvqFAsmKpgUEc1IAEN7TqAy4xWQ0dkm6YsuS6fJ3C3Ed3CZ
/uqiUKaHFUE48ZTDViTW2tyKnfM5RRulzRwIzan175fFS372yw==
-----END CERTIFICATE-----
