Certificate:
    Data:
        Version: 3 (0x2)
        Serial Number: 4098 (0x1002)
        Signature Algorithm: sha256WithRSAEncryption
        Issuer: C=FR, O=Drone Fleet, OU=Security, CN=Drone intermediate CA
        Validity
            Not Before: Mar  9 08:16:58 2026 GMT
            Not After : Mar  9 08:16:58 2027 GMT
        Subject: C=FR, O=Drone Fleet, OU=Security, CN=GCS-000
        Subject Public Key Info:
            Public Key Algorithm: rsaEncryption
                Public-Key: (4096 bit)
                Modulus:
                    00:a8:43:a1:a7:b3:56:aa:8e:1f:00:8b:d3:54:65:
                    51:50:7c:00:c3:d1:7a:d1:68:da:4f:2b:ba:f6:a6:
                    32:67:80:b2:9c:30:62:ef:38:b5:3e:0c:c2:77:18:
                    dc:c9:b5:7b:14:77:44:4e:c5:82:f1:df:e3:27:29:
                    b2:8c:4c:41:60:e0:e7:d2:57:e7:09:07:78:7c:4a:
                    7c:35:5c:20:5e:8b:a3:20:60:9c:e8:d3:94:82:1a:
                    05:b7:37:de:c2:35:9e:e4:c0:a7:66:cb:8f:8f:3a:
                    7a:00:b4:2f:4c:56:50:ff:ff:a7:e2:b1:ae:7e:97:
                    31:6f:ae:46:b2:ef:56:0f:d5:77:42:94:2e:bc:ec:
                    ec:71:66:3a:33:35:69:79:b3:22:20:20:90:9e:3f:
                    2a:40:dd:7e:07:7a:dd:87:ec:9e:d8:39:6e:cf:c1:
                    54:35:b3:89:2e:23:a5:65:b4:04:f6:25:9d:f1:84:
                    6d:57:32:88:72:85:ee:17:54:2f:18:df:78:b0:b8:
                    45:42:26:ee:9e:5b:fd:51:de:89:27:f3:0d:27:5d:
                    25:bd:ac:c6:e7:6c:5d:8a:53:2d:a0:74:af:c7:8f:
                    23:6f:b1:f2:46:0e:0e:75:dc:8b:83:36:78:0b:fc:
                    e9:92:0f:0d:a6:26:55:52:32:f9:2d:5f:87:e8:65:
                    1a:bf:ce:2a:cc:cd:53:e9:7f:50:35:43:3c:97:8f:
                    e4:0a:4e:dd:70:40:f8:92:17:b4:07:a7:43:40:69:
                    27:3b:ea:9b:36:56:80:56:92:ca:98:95:37:ff:ac:
                    27:97:eb:09:01:fc:fb:25:c8:b1:fd:95:8d:d7:bf:
                    d1:8b:17:94:83:1b:aa:9a:32:43:19:a9:7a:b7:fc:
                    ff:f5:0b:b1:26:81:03:1e:e0:d1:56:91:81:cc:54:
                    bd:24:56:0c:07:e9:16:6a:bd:96:6d:28:2f:0c:0a:
                    2c:fe:56:94:41:95:8c:d0:34:a6:f5:97:fb:ff:e5:
                    19:f1:81:bd:39:33:d7:ea:e8:65:25:a3:56:11:ed:
                    38:f4:8a:5b:2b:0a:67:a2:82:ce:a7:0e:8a:0a:c9:
                    fb:a5:47:bd:36:c4:a2:df:f1:e1:c7:79:ec:e8:07:
                    ff:20:b5:ab:99:a9:be:c9:2c:bc:36:76:87:18:da:
                    a1:ea:77:ba:fa:26:c3:ba:6d:b1:7f:fe:79:d7:3e:
                    8e:c6:84:39:7c:bf:e5:89:7e:e7:ef:13:ad:69:10:
                    2d:32:7e:0e:b9:22:92:07:5d:b7:ac:62:cc:f6:80:
                    b5:68:55:ee:cd:3d:c2:4c:18:d4:84:e4:98:e5:01:
                    8f:53:75:a4:eb:02:b8:b4:10:e7:0b:5a:33:35:28:
                    2e:87:f9
                Exponent: 65537 (0x10001)
        X509v3 extensions:
            X509v3 Subject Key Identifier: 
                18:98:A0:46:EA:7B:AB:B7:09:13:36:20:6F:12:D1:CB:FA:AC:B5:15
            X509v3 Basic Constraints: critical
                CA:FALSE
            Netscape Comment: 
                Drone Fleet GCS Server Certificate
            X509v3 Key Usage: critical
                Digital Signature, Key Encipherment
            X509v3 Extended Key Usage: 
                TLS Web Server Authentication
            X509v3 Authority Key Identifier: 
                65:E9:6E:D0:C2:9A:13:A7:FE:48:6D:E2:09:D1:64:5A:25:BA:6F:9C
            X509v3 Subject Alternative Name: 
                DNS:localhost, IP Address:127.0.0.1
    Signature Algorithm: sha256WithRSAEncryption
    Signature Value:
        46:c0:e7:43:bf:d1:91:21:53:2b:ee:bc:99:e5:81:4b:41:85:
        fa:86:af:53:34:30:04:bc:1d:9c:fb:82:56:0d:5f:c1:68:9b:
        e2:e9:68:dc:7a:ca:35:5e:2f:c8:18:c7:c5:63:e8:79:f4:d6:
        9f:4f:31:53:5f:66:12:e8:57:39:b1:fa:5c:21:96:20:ac:ef:
        de:d4:d6:3a:de:27:4e:cd:b8:70:d9:b6:d6:6f:cf:16:aa:b5:
        09:19:0c:57:93:da:7e:44:0e:11:32:46:71:12:52:7b:59:15:
        0d:c3:a0:cb:2b:b8:10:52:76:e6:d4:93:03:d0:1f:cc:f9:36:
        73:50:a3:37:f1:e0:ee:71:5b:7f:65:f3:b1:d4:55:22:99:a1:
        73:67:ac:e5:2d:b0:e9:97:a0:94:38:d8:98:24:95:b0:2b:28:
        1d:2c:4c:36:f2:71:70:08:be:a6:e6:83:ea:ad:be:3e:5b:f2:
        35:7e:ef:ad:1b:9c:87:64:80:2d:91:6d:44:a7:72:1a:f7:6a:
        ad:14:25:f6:fa:e8:c6:ec:c2:19:51:dc:e1:ff:af:d4:d1:35:
        04:f2:e8:19:f7:7f:8b:0a:a0:94:1b:62:ec:ad:a9:44:d9:8e:
        eb:78:42:18:f1:40:ca:1e:77:70:4b:52:8b:c0:ab:89:53:80:
        89:b3:0f:6a:da:fa:7f:0b:35:0c:71:ba:3c:db:23:72:16:8b:
        5a:0e:5a:22:2a:b8:49:0e:5f:84:65:72:1a:c0:9e:58:a7:e6:
        2a:77:68:ad:ea:56:77:f3:6f:7e:21:df:c7:c4:50:35:9d:5b:
        1d:af:5c:42:f8:d0:01:ce:aa:03:b0:21:89:c3:43:73:0c:2b:
        a5:5e:dc:ea:88:1f:d1:d6:23:e3:e0:9d:6b:9e:86:61:60:46:
        0b:ac:ea:a7:20:c8:29:71:a4:25:a1:63:da:5f:c8:15:c1:bc:
        b4:61:05:2d:cb:d5:c1:ab:53:8b:49:ba:7f:61:2e:f9:15:fe:
        85:6e:13:2b:d2:0c:cb:15:25:12:32:64:3b:f6:64:4e:a4:b7:
        ab:4a:6f:c1:68:6b:e1:c9:3c:c6:16:d7:66:77:fb:1e:e6:c9:
        7f:bd:2b:5f:4e:68:d2:d4:28:02:9e:73:47:a4:ed:4c:9d:de:
        d8:e8:57:73:b6:ed:9c:6c:51:31:02:8e:bd:4f:07:b5:cf:f8:
        1e:f3:ec:c3:16:51:9b:b3:88:a3:88:d9:36:13:64:71:06:c3:
        fb:d9:31:c3:99:00:a1:5c:ab:55:8b:4d:4a:d3:f3:e9:a4:af:
        99:48:ac:02:61:54:64:9f:bd:5d:08:03:e4:a9:35:5f:06:42:
        9f:dc:e0:64:f7:e9:a3:70
-----BEGIN CERTIFICATE-----
MIIF4DCCA8igAwIBAgICEAIwDQYJKoZIhvcNAQELBQAwVjELMAkGA1UEBhMCRlIx
FDASBgNVBAoMC0Ryb25lIEZsZWV0MREwDwYDVQQLDAhTZWN1cml0eTEeMBwGA1UE
AwwVRHJvbmUgaW50ZXJtZWRpYXRlIENBMB4XDTI2MDMwOTA4MTY1OFoXDTI3MDMw
OTA4MTY1OFowSDELMAkGA1UEBhMCRlIxFDASBgNVBAoMC0Ryb25lIEZsZWV0MREw
DwYDVQQLDAhTZWN1cml0eTEQMA4GA1UEAwwHR0NTLTAwMDCCAiIwDQYJKoZIhvcN
AQEBBQADggIPADCCAgoCggIBAKhDoaezVqqOHwCL01RlUVB8AMPRetFo2k8ruvam
MmeAspwwYu84tT4MwncY3Mm1exR3RE7FgvHf4ycpsoxMQWDg59JX5wkHeHxKfDVc
IF6LoyBgnOjTlIIaBbc33sI1nuTAp2bLj486egC0L0xWUP//p+Kxrn6XMW+uRrLv
Vg/Vd0KULrzs7HFmOjM1aXmzIiAgkJ4/KkDdfgd63Yfsntg5bs/BVDWziS4jpWW0
BPYlnfGEbVcyiHKF7hdULxjfeLC4RUIm7p5b/VHeiSfzDSddJb2sxudsXYpTLaB0
r8ePI2+x8kYODnXci4M2eAv86ZIPDaYmVVIy+S1fh+hlGr/OKszNU+l/UDVDPJeP
5ApO3XBA+JIXtAenQ0BpJzvqmzZWgFaSypiVN/+sJ5frCQH8+yXIsf2Vjde/0YsX
lIMbqpoyQxmperf8//ULsSaBAx7g0VaRgcxUvSRWDAfpFmq9lm0oLwwKLP5WlEGV
jNA0pvWX+//lGfGBvTkz1+roZSWjVhHtOPSKWysKZ6KCzqcOigrJ+6VHvTbEot/x
4cd57OgH/yC1q5mpvsksvDZ2hxjaoep3uvomw7ptsX/+edc+jsaEOXy/5Yl+5+8T
rWkQLTJ+Drkikgddt6xizPaAtWhV7s09wkwY1ITkmOUBj1N1pOsCuLQQ5wtaMzUo
Lof5AgMBAAGjgcUwgcIwHQYDVR0OBBYEFBiYoEbqe6u3CRM2IG8S0cv6rLUVMAwG
A1UdEwEB/wQCMAAwMQYJYIZIAYb4QgENBCQWIkRyb25lIEZsZWV0IEdDUyBTZXJ2
ZXIgQ2VydGlmaWNhdGUwDgYDVR0PAQH/BAQDAgWgMBMGA1UdJQQMMAoGCCsGAQUF
BwMBMB8GA1UdIwQYMBaAFGXpbtDCmhOn/kht4gnRZFolum+cMBoGA1UdEQQTMBGC
CWxvY2FsaG9zdIcEfwAAATANBgkqhkiG9w0BAQsFAAOCAgEARsDnQ7/RkSFTK+68
meWBS0GF+oavUzQwBLwdnPuCVg1fwWib4ulo3HrKNV4vyBjHxWPoefTWn08xU19m
EuhXObH6XCGWIKzv3tTWOt4nTs24cNm21m/PFqq1CRkMV5PafkQOETJGcRJSe1kV
DcOgyyu4EFJ25tSTA9AfzPk2c1CjN/Hg7nFbf2XzsdRVIpmhc2es5S2w6ZeglDjY
mCSVsCsoHSxMNvJxcAi+puaD6q2+PlvyNX7vrRuch2SALZFtRKdyGvdqrRQl9vro
xuzCGVHc4f+v1NE1BPLoGfd/iwqglBti7K2pRNmO63hCGPFAyh53cEtSi8CriVOA
ibMPatr6fws1DHG6PNsjchaLWg5aIiq4SQ5fhGVyGsCeWKfmKndorepWd/NvfiHf
x8RQNZ1bHa9cQvjQAc6qA7AhicNDcwwrpV7c6ogf0dYj4+Cda56GYWBGC6zqpyDI
KXGkJaFj2l/IFcG8tGEFLcvVwatTi0m6f2Eu+RX+hW4TK9IMyxUlEjJkO/ZkTqS3
q0pvwWhr4ck8xhbXZnf7HubJf70rX05o0tQoAp5zR6TtTJ3e2OhXc7btnGxRMQKO
vU8Htc/4HvPswxZRm7OIo4jZNhNkcQbD+9kxw5kAoVyrVYtNStPz6aSvmUisAmFU
ZJ+9XQgD5Kk1XwZCn9zgZPfpo3A=
-----END CERTIFICATE-----
