Certificate:
    Data:
        Version: 3 (0x2)
        Serial Number: 4096 (0x1000)
        Signature Algorithm: sha256WithRSAEncryption
        Issuer: C=FR, O=Drone Fleet, OU=Security, CN=Drone intermediate CA
        Validity
            Not Before: Mar  9 08:16:45 2026 GMT
            Not After : Mar  9 08:16:45 2027 GMT
        Subject: C=FR, O=Drone Fleet, OU=Security, CN=xelto-000
        Subject Public Key Info:
            Public Key Algorithm: rsaEncryption
                Public-Key: (4096 bit)
                Modulus:
                    00:cc:0d:70:fd:a6:78:ff:3f:07:c3:7a:b8:05:8d:
                    a1:be:41:6b:08:6f:0c:96:58:98:02:e6:dc:6f:31:
                    74:5e:9e:59:92:5d:55:ca:ad:86:2f:08:32:e3:b7:
                    63:2f:9e:41:75:01:8d:46:2d:51:98:a2:cc:f4:38:
                    96:1c:f4:82:73:39:4c:e5:58:cf:d4:be:e1:57:01:
                    38:6c:64:db:b2:fb:4a:32:66:98:f8:6e:6c:7a:50:
                    14:f2:c6:fb:01:34:c6:4f:ab:e2:c1:26:79:f3:c5:
                    7d:d2:e0:50:47:dd:5e:4b:69:b9:12:e2:59:fa:83:
                    88:94:55:11:fe:1f:64:fc:c0:41:40:27:5a:97:f9:
                    99:9f:6a:df:3e:8b:1d:c3:8e:d4:59:bd:61:91:a2:
                    da:20:3b:9d:04:a2:37:00:54:1f:b1:85:7d:00:a1:
                    3c:13:4d:6d:af:a9:96:e8:1d:fd:88:fa:d0:7c:36:
                    d0:1a:f3:bd:1b:52:e6:9c:ae:d4:8d:41:4e:0b:ef:
                    2e:f9:e9:a3:7a:a8:2c:c0:0b:f2:ef:f8:43:fa:4b:
                    89:e1:46:e9:bd:d5:7b:41:f1:0e:cd:e9:9a:62:70:
                    05:a9:10:59:61:8e:1e:f1:9e:0e:24:e6:6e:a5:6b:
                    51:2d:b3:3c:7d:9d:ec:ba:7d:b8:a1:45:4c:95:cc:
                    70:9c:ca:4f:fc:04:16:b4:4c:dd:57:e6:09:0e:ba:
                    ce:66:3e:28:1b:56:89:a3:09:ad:d4:c3:a3:ee:aa:
                    96:f7:0d:4d:d7:7a:56:9e:ba:fd:dc:ca:fe:e2:36:
                    9f:e7:e3:50:fb:a5:70:b1:82:8c:1d:e9:1f:92:69:
                    ae:d4:53:d4:00:75:e6:58:97:2f:99:ab:fe:82:4f:
                    09:ee:21:39:80:1e:42:3f:be:58:6b:c9:c9:58:9b:
                    89:4b:9d:38:ed:b0:a8:bd:e0:d7:c1:7e:61:72:0e:
                    6e:1f:cd:a1:83:ae:68:73:d2:af:95:46:0e:bf:44:
                    ec:75:b1:30:d8:c8:06:f8:a5:70:b8:3c:2f:05:19:
                    b6:d2:11:b4:1b:c5:e0:e7:c6:6b:b0:34:7e:a5:81:
                    82:11:d0:ea:f5:df:a3:55:1f:ec:10:3e:89:c3:99:
                    0c:db:7b:71:3b:f8:b8:1a:53:fa:6a:38:65:24:f1:
                    ce:3c:a8:f1:65:7e:56:4b:e4:9d:77:4f:99:41:0f:
                    32:d7:8b:3f:4e:26:e9:e7:9f:32:cd:8a:f6:46:4e:
                    dc:d0:24:d8:bd:54:c4:07:4a:86:47:3b:11:05:c4:
                    82:3c:d5:be:ca:88:8b:35:84:37:2c:7d:15:ac:09:
                    24:76:41:9e:65:ee:4b:f1:ef:a0:92:38:76:c5:69:
                    41:00:d1
                Exponent: 65537 (0x10001)
        X509v3 extensions:
            X509v3 Subject Key Identifier: 
                D7:66:39:82:9F:C7:28:2A:D1:32:D1:1B:65:38:A1:44:0B:34:26:1A
            Netscape Comment: 
                Drone Identity Certificate
            X509v3 Basic Constraints: critical
                CA:FALSE
            X509v3 Authority Key Identifier: 
                65:E9:6E:D0:C2:9A:13:A7:FE:48:6D:E2:09:D1:64:5A:25:BA:6F:9C
            X509v3 Key Usage: critical
                Digital Signature, Key Encipherment
            X509v3 Extended Key Usage: 
                TLS Web Client Authentication
    Signature Algorithm: sha256WithRSAEncryption
    Signature Value:
        4c:2c:00:b2:38:57:ea:05:dd:96:d9:92:e6:c1:d1:7b:02:5d:
        2b:03:a9:ea:10:a2:78:06:bd:2b:6a:96:9f:aa:ae:cd:43:36:
        f1:c9:eb:f1:cd:e7:b2:94:ed:b4:c5:0a:aa:47:7e:e8:88:cd:
        25:12:26:2d:03:78:59:6f:74:74:14:67:92:e2:6f:1e:98:fb:
        02:f7:c2:6a:6b:21:d3:89:b6:7e:ce:b8:93:f9:4e:00:ed:ae:
        87:82:55:c2:70:d8:c6:ed:74:2f:d4:da:4b:e7:ef:bf:7e:17:
        f7:78:b1:c3:fe:3a:9f:8d:5e:c7:57:a4:d5:43:b4:49:37:0a:
        d4:01:7c:35:16:dc:f9:a8:42:ef:04:67:08:9e:eb:85:e3:7e:
        2e:ee:b1:9d:0b:36:b1:32:20:da:d1:de:63:fa:c6:8a:97:af:
        26:f7:d8:97:29:8c:35:18:26:e5:45:ef:e2:22:96:6d:4c:1a:
        86:22:f9:d1:79:62:a8:9d:ca:ae:e3:a3:1e:60:03:ef:86:db:
        c2:e0:be:53:1a:72:61:ef:6f:72:b7:3a:59:85:39:6c:9c:e3:
        9d:f8:24:cd:d8:20:a2:ef:ce:cf:cc:0f:a4:e4:57:8a:5e:49:
        f3:ef:54:c5:b9:eb:79:52:dc:76:a9:7b:bc:73:de:23:e1:92:
        a6:1b:39:ec:a0:03:d1:a8:55:20:92:14:ff:95:fb:16:df:c6:
        73:b3:30:f1:be:fe:68:8d:bd:43:48:34:e0:ab:b0:0b:a1:67:
        7a:95:60:22:89:b2:65:60:98:89:4c:ee:2a:0c:e5:d5:69:3c:
        da:91:e1:7c:99:d9:60:5d:a8:ca:fa:cd:9d:e9:da:f1:b0:42:
        6c:77:6e:a9:d3:bf:da:f0:99:f0:28:15:4b:a8:f3:dd:a9:bd:
        c7:4a:74:98:60:a8:57:b9:53:12:21:84:b7:04:cf:10:ff:5f:
        80:ba:cf:8b:4e:cc:63:51:38:8d:1a:e6:74:b1:2c:78:e2:8d:
        1e:9a:c5:67:4e:cd:fb:28:fc:4b:5a:aa:75:a4:8a:d1:3d:90:
        9b:81:50:80:18:c7:71:72:8f:15:6f:13:d2:0a:ac:8a:b2:f6:
        f6:a1:47:fe:78:bf:ca:c4:53:ae:72:22:73:6c:42:d7:38:48:
        0f:64:0e:79:17:47:4f:56:30:57:9e:cc:64:6a:cb:a8:b4:7d:
        f8:a8:d7:74:e7:c9:3b:5f:f9:3f:13:57:14:e4:46:33:f0:22:
        b0:df:da:55:01:f6:95:88:cd:41:6a:d6:aa:8b:77:fb:39:86:
        29:4d:54:9c:ec:7e:b7:a5:bb:24:f8:99:a0:c0:86:f7:3a:40:
        28:fe:81:a6:60:8a:2a:73
-----BEGIN CERTIFICATE-----
MIIFvjCCA6agAwIBAgICEAAwDQYJKoZIhvcNAQELBQAwVjELMAkGA1UEBhMCRlIx
FDASBgNVBAoMC0Ryb25lIEZsZWV0MREwDwYDVQQLDAhTZWN1cml0eTEeMBwGA1UE
AwwVRHJvbmUgaW50ZXJtZWRpYXRlIENBMB4XDTI2MDMwOTA4MTY0NVoXDTI3MDMw
OTA4MTY0NVowSjELMAkGA1UEBhMCRlIxFDASBgNVBAoMC0Ryb25lIEZsZWV0MREw
DwYDVQQLDAhTZWN1cml0eTESMBAGA1UEAwwJeGVsdG8tMDAwMIICIjANBgkqhkiG
9w0BAQEFAAOCAg8AMIICCgKCAgEAzA1w/aZ4/z8Hw3q4BY2hvkFrCG8MlliYAubc
bzF0Xp5Zkl1Vyq2GLwgy47djL55BdQGNRi1RmKLM9DiWHPSCczlM5VjP1L7hVwE4
bGTbsvtKMmaY+G5selAU8sb7ATTGT6viwSZ588V90uBQR91eS2m5EuJZ+oOIlFUR
/h9k/MBBQCdal/mZn2rfPosdw47UWb1hkaLaIDudBKI3AFQfsYV9AKE8E01tr6mW
6B39iPrQfDbQGvO9G1LmnK7UjUFOC+8u+emjeqgswAvy7/hD+kuJ4UbpvdV7QfEO
zemaYnAFqRBZYY4e8Z4OJOZupWtRLbM8fZ3sun24oUVMlcxwnMpP/AQWtEzdV+YJ
DrrOZj4oG1aJowmt1MOj7qqW9w1N13pWnrr93Mr+4jaf5+NQ+6VwsYKMHekfkmmu
1FPUAHXmWJcvmav+gk8J7iE5gB5CP75Ya8nJWJuJS5047bCoveDXwX5hcg5uH82h
g65oc9KvlUYOv0TsdbEw2MgG+KVwuDwvBRm20hG0G8Xg58ZrsDR+pYGCEdDq9d+j
VR/sED6Jw5kM23txO/i4GlP6ajhlJPHOPKjxZX5WS+Sdd0+ZQQ8y14s/Tibp558y
zYr2Rk7c0CTYvVTEB0qGRzsRBcSCPNW+yoiLNYQ3LH0VrAkkdkGeZe5L8e+gkjh2
xWlBANECAwEAAaOBoTCBnjAdBgNVHQ4EFgQU12Y5gp/HKCrRMtEbZTihRAs0Jhow
KQYJYIZIAYb4QgENBBwWGkRyb25lIElkZW50aXR5IENlcnRpZmljYXRlMAwGA1Ud
EwEB/wQCMAAwHwYDVR0jBBgwFoAUZelu0MKaE6f+SG3iCdFkWiW6b5wwDgYDVR0P
AQH/BAQDAgWgMBMGA1UdJQQMMAoGCCsGAQUFBwMCMA0GCSqGSIb3DQEBCwUAA4IC
AQBMLACyOFfqBd2W2ZLmwdF7Al0rA6nqEKJ4Br0rapafqq7NQzbxyevxzeeylO20
xQqqR37oiM0lEiYtA3hZb3R0FGeS4m8emPsC98JqayHTibZ+zriT+U4A7a6HglXC
cNjG7XQv1NpL5++/fhf3eLHD/jqfjV7HV6TVQ7RJNwrUAXw1Ftz5qELvBGcInuuF
434u7rGdCzaxMiDa0d5j+saKl68m99iXKYw1GCblRe/iIpZtTBqGIvnReWKoncqu
46MeYAPvhtvC4L5TGnJh729ytzpZhTlsnOOd+CTN2CCi787PzA+k5FeKXknz71TF
uet5Utx2qXu8c94j4ZKmGznsoAPRqFUgkhT/lfsW38ZzszDxvv5ojb1DSDTgq7AL
oWd6lWAiibJlYJiJTO4qDOXVaTzakeF8mdlgXajK+s2d6drxsEJsd26p07/a8Jnw
KBVLqPPdqb3HSnSYYKhXuVMSIYS3BM8Q/1+Aus+LTsxjUTiNGuZ0sSx44o0emsVn
Ts37KPxLWqp1pIrRPZCbgVCAGMdxco8VbxPSCqyKsvb2oUf+eL/KxFOuciJzbELX
OEgPZA55F0dPVjBXnsxkasuotH34qNd058k7X/k/E1cU5EYz8CKw39pVAfaViM1B
ataqi3f7OYYpTVSc7H63pbsk+JmgwIb3OkAo/oGmYIoqcw==
-----END CERTIFICATE-----
