Certificate:
    Data:
        Version: 3 (0x2)
        Serial Number: 4097 (0x1001)
        Signature Algorithm: sha256WithRSAEncryption
        Issuer: C=FR, O=Drone Fleet, OU=Security, CN=Drone intermediate CA
        Validity
            Not Before: Mar  9 08:16:47 2026 GMT
            Not After : Mar  9 08:16:47 2027 GMT
        Subject: C=FR, O=Drone Fleet, OU=Security, CN=xelto-001
        Subject Public Key Info:
            Public Key Algorithm: rsaEncryption
                Public-Key: (4096 bit)
                Modulus:
                    00:95:ba:26:79:e2:b9:a6:0e:a1:4c:4e:1b:9b:f7:
                    58:b2:ab:36:3d:fa:29:62:c0:34:bb:cf:b0:45:24:
                    ba:2f:ef:7c:6c:61:eb:af:8b:f1:d9:bb:c6:9d:4e:
                    fe:04:70:90:fa:b0:2f:81:42:9c:ef:dc:07:fc:85:
                    20:57:14:dd:2b:2c:b0:1a:e5:b7:ab:3f:50:c1:03:
                    a6:7e:83:cd:31:83:fd:ae:c4:0d:0f:c7:e3:66:de:
                    3d:fc:39:33:e2:e2:43:17:c2:5f:b4:87:9c:21:32:
                    56:25:0b:4e:f4:64:e1:2e:d5:05:a9:7e:a3:76:e6:
                    48:92:d1:eb:ca:29:f6:fe:39:1c:f3:65:ba:b0:bc:
                    64:92:e6:91:c1:45:09:68:dc:50:0e:c3:08:fc:37:
                    a7:70:3b:c0:ca:4a:75:b3:2e:c3:4c:1a:90:56:e2:
                    45:53:46:bf:e5:a2:f4:18:85:b6:d9:1d:32:7b:e0:
                    2d:b7:c8:5d:1d:d4:d6:9c:83:c9:7a:5c:3e:57:d5:
                    e5:6d:88:7d:6b:30:a0:2e:43:04:ea:00:77:f2:9d:
                    ad:8b:c5:ff:5e:ab:dd:bd:4b:4d:49:63:f4:e0:c1:
                    14:89:0f:02:d6:d1:d7:a6:7a:8c:cf:52:3e:22:2c:
                    ac:26:7e:a7:bd:d4:d1:c9:a2:46:6c:a9:e8:28:a2:
                    9d:b5:d6:29:67:39:f5:d5:7c:70:08:80:66:6c:4a:
                    cb:cc:31:c5:e2:63:d0:05:00:87:14:cf:dc:4f:59:
                    41:48:47:78:5a:f4:40:74:de:c5:c0:a1:20:66:55:
                    f4:6c:e5:28:42:48:0b:59:7e:2c:92:d6:16:1c:09:
                    55:32:a1:7d:cd:1d:80:dc:c6:4e:df:ca:4f:cf:77:
                    d6:ac:61:09:10:44:8d:dc:55:34:77:d9:e8:50:0e:
                    96:c6:33:09:01:f6:cb:2e:bd:8f:66:a1:b1:b0:e6:
                    2c:fe:fa:8c:a2:d5:70:58:a5:b5:de:90:b0:29:5e:
                    77:f3:b8:6b:73:10:af:7e:ad:39:94:4f:2e:fd:d0:
                    28:bf:b1:5b:62:8b:61:a0:5b:b0:e2:21:04:99:df:
                    59:2d:d2:0b:98:45:fe:97:54:36:fb:0a:0d:26:d5:
                    03:40:52:2c:4e:42:83:71:29:8c:a4:70:cf:a1:af:
                    88:97:38:73:6e:39:3d:c4:8f:16:09:ee:bb:11:80:
                    d6:c7:ae:c5:1b:bc:26:b7:ee:e7:86:5c:3b:a7:1f:
                    23:46:4a:b0:78:10:d5:25:73:df:60:8f:93:64:d0:
                    53:c0:2f:1c:de:c7:dc:7e:41:3c:5a:ad:52:bd:ac:
                    98:01:f1:03:91:19:f6:87:df:48:71:db:21:d1:0c:
                    20:f5:85
                Exponent: 65537 (0x10001)
        X509v3 extensions:
            X509v3 Subject Key Identifier: 
                EA:D7:A6:7F:A1:38:24:1C:E2:9D:7D:DD:AF:36:4B:59:52:88:D4:8A
            Netscape Comment: 
                Drone Identity Certificate
            X509v3 Basic Constraints: critical
                CA:FALSE
            X509v3 Authority Key Identifier: 
                65:E9:6E:D0:C2:9A:13:A7:FE:48:6D:E2:09:D1:64:5A:25:BA:6F:9C
            X509v3 Key Usage: critical
                Digital Signature, Key Encipherment
            X509v3 Extended Key Usage: 
                TLS Web Client Authentication
    Signature Algorithm: sha256WithRSAEncryption
    Signature Value:
        75:fc:c0:51:db:94:4b:83:46:fd:5b:ce:a2:1b:3e:f9:77:82:
        37:11:17:88:41:1f:43:45:1e:e5:d7:0e:e2:9d:5b:ae:4a:5b:
        fb:35:75:5f:be:a3:46:04:8b:ca:10:5f:3c:70:d2:8e:58:b9:
        c0:06:ed:78:2c:35:9e:8d:53:18:c9:1e:6b:f8:24:9f:62:16:
        14:ae:89:7f:06:f9:d5:ab:49:83:a2:cd:19:fa:9d:6c:1a:4a:
        fd:de:c6:14:27:72:2d:5c:51:2a:fb:b8:0c:af:5e:e3:77:2c:
        90:9e:cb:50:39:d9:78:c9:6b:f3:2d:fc:ca:39:a6:f1:d2:41:
        a1:73:cf:46:9e:ab:46:3a:6b:65:5f:02:ca:c6:15:42:b3:a2:
        fd:e2:e6:db:52:28:f5:f5:dc:5f:39:11:c1:d3:78:9f:93:da:
        7c:22:b7:a3:a3:a3:a5:04:dd:ef:1a:76:1f:09:c6:8e:a5:d9:
        71:b7:60:79:b7:59:21:2f:fe:ea:8a:7e:c7:c2:9e:f9:d9:82:
        bd:e7:ea:b3:ea:85:a9:aa:93:55:16:77:50:1e:37:ed:a4:e7:
        76:24:fd:29:a5:05:3d:97:a7:bc:69:8d:8f:48:28:56:8c:d5:
        40:f0:a8:c7:f8:0f:02:21:38:64:73:c0:cb:ae:1e:c6:ad:28:
        83:41:ab:a2:d8:7b:b8:67:9c:1a:ac:2e:af:4b:93:1c:ab:6d:
        cd:9a:54:55:67:67:e2:94:54:82:96:f8:67:fc:f0:e6:34:a9:
        ae:7a:93:c4:be:4d:fd:4b:26:ee:76:21:b1:0b:a9:9b:03:1f:
        73:b6:8d:3d:3d:da:45:22:e9:9f:d1:a9:a6:3e:3a:38:1a:d9:
        55:a0:3f:23:6e:14:3d:b7:ba:e6:5d:68:0a:40:ef:e2:30:20:
        61:75:7f:58:ac:ed:e1:02:4b:d1:33:54:b4:05:e3:99:68:45:
        62:46:f6:2d:c4:7b:0d:c1:7c:b2:2a:0f:97:59:a0:6a:1b:a8:
        b7:b8:e1:18:3c:95:5a:25:10:58:80:1c:59:8f:7a:c6:ab:1b:
        2c:26:be:fa:69:e6:8e:76:20:f5:07:82:10:b4:7f:90:5a:39:
        ca:2f:d0:3a:00:d6:e2:ae:34:20:b6:33:bb:44:da:50:a2:ea:
        c7:8c:39:ab:07:0d:e3:b5:02:98:82:5e:11:a2:9d:81:13:bc:
        e6:64:5d:57:a8:13:7b:96:b2:2d:2b:a7:4f:9d:16:44:2a:e6:
        ac:f9:96:09:13:42:f8:9a:42:80:e8:ad:ad:34:90:af:18:c3:
        15:52:da:14:44:c7:26:54:5d:7e:1b:2b:b5:80:bf:6d:68:e1:
        cd:5b:68:d6:f2:ce:d9:49
-----BEGIN CERTIFICATE-----
MIIFvjCCA6agAwIBAgICEAEwDQYJKoZIhvcNAQELBQAwVjELMAkGA1UEBhMCRlIx
FDASBgNVBAoMC0Ryb25lIEZsZWV0MREwDwYDVQQLDAhTZWN1cml0eTEeMBwGA1UE
AwwVRHJvbmUgaW50ZXJtZWRpYXRlIENBMB4XDTI2MDMwOTA4MTY0N1oXDTI3MDMw
OTA4MTY0N1owSjELMAkGA1UEBhMCRlIxFDASBgNVBAoMC0Ryb25lIEZsZWV0MREw
DwYDVQQLDAhTZWN1cml0eTESMBAGA1UEAwwJeGVsdG8tMDAxMIICIjANBgkqhkiG
9w0BAQEFAAOCAg8AMIICCgKCAgEAlbomeeK5pg6hTE4bm/dYsqs2PfopYsA0u8+w
RSS6L+98bGHrr4vx2bvGnU7+BHCQ+rAvgUKc79wH/IUgVxTdKyywGuW3qz9QwQOm
foPNMYP9rsQND8fjZt49/Dkz4uJDF8JftIecITJWJQtO9GThLtUFqX6jduZIktHr
yin2/jkc82W6sLxkkuaRwUUJaNxQDsMI/DencDvAykp1sy7DTBqQVuJFU0a/5aL0
GIW22R0ye+Att8hdHdTWnIPJelw+V9XlbYh9azCgLkME6gB38p2ti8X/XqvdvUtN
SWP04MEUiQ8C1tHXpnqMz1I+IiysJn6nvdTRyaJGbKnoKKKdtdYpZzn11XxwCIBm
bErLzDHF4mPQBQCHFM/cT1lBSEd4WvRAdN7FwKEgZlX0bOUoQkgLWX4sktYWHAlV
MqF9zR2A3MZO38pPz3fWrGEJEESN3FU0d9noUA6WxjMJAfbLLr2PZqGxsOYs/vqM
otVwWKW13pCwKV5387hrcxCvfq05lE8u/dAov7FbYothoFuw4iEEmd9ZLdILmEX+
l1Q2+woNJtUDQFIsTkKDcSmMpHDPoa+Ilzhzbjk9xI8WCe67EYDWx67FG7wmt+7n
hlw7px8jRkqweBDVJXPfYI+TZNBTwC8c3sfcfkE8Wq1SvayYAfEDkRn2h99Icdsh
0Qwg9YUCAwEAAaOBoTCBnjAdBgNVHQ4EFgQU6temf6E4JBzinX3drzZLWVKI1Iow
KQYJYIZIAYb4QgENBBwWGkRyb25lIElkZW50aXR5IENlcnRpZmljYXRlMAwGA1Ud
EwEB/wQCMAAwHwYDVR0jBBgwFoAUZelu0MKaE6f+SG3iCdFkWiW6b5wwDgYDVR0P
AQH/BAQDAgWgMBMGA1UdJQQMMAoGCCsGAQUFBwMCMA0GCSqGSIb3DQEBCwUAA4IC
AQB1/MBR25RLg0b9W86iGz75d4I3EReIQR9DRR7l1w7inVuuSlv7NXVfvqNGBIvK
EF88cNKOWLnABu14LDWejVMYyR5r+CSfYhYUrol/BvnVq0mDos0Z+p1sGkr93sYU
J3ItXFEq+7gMr17jdyyQnstQOdl4yWvzLfzKOabx0kGhc89GnqtGOmtlXwLKxhVC
s6L94ubbUij19dxfORHB03ifk9p8Irejo6OlBN3vGnYfCcaOpdlxt2B5t1khL/7q
in7Hwp752YK95+qz6oWpqpNVFndQHjftpOd2JP0ppQU9l6e8aY2PSChWjNVA8KjH
+A8CIThkc8DLrh7GrSiDQaui2Hu4Z5warC6vS5Mcq23NmlRVZ2filFSClvhn/PDm
NKmuepPEvk39SybudiGxC6mbAx9zto09PdpFIumf0ammPjo4GtlVoD8jbhQ9t7rm
XWgKQO/iMCBhdX9YrO3hAkvRM1S0BeOZaEViRvYtxHsNwXyyKg+XWaBqG6i3uOEY
PJVaJRBYgBxZj3rGqxssJr76aeaOdiD1B4IQtH+QWjnKL9A6ANbirjQgtjO7RNpQ
ourHjDmrBw3jtQKYgl4Rop2BE7zmZF1XqBN7lrItK6dPnRZEKuas+ZYJE0L4mkKA
6K2tNJCvGMMVUtoURMcmVF1+Gyu1gL9taOHNW2jW8s7ZSQ==
-----END CERTIFICATE-----
