-----BEGIN CERTIFICATE-----
MIIFmTCCA4GgAwIBAgIUQiI7iM8zuw9Kt7+FMxY3nsSOs0swDQYJKoZIhvcNAQEL
BQAwVDELMAkGA1UEBhMCRlIxFDASBgNVBAoMC0Ryb25lIEZsZWV0MREwDwYDVQQL
DAhTZWN1cml0eTEcMBoGA1UEAwwTRHJvbmUgRmxlZXQgUm9vdCBDQTAeFw0yNjAz
MTExNTIyNDJaFw0yNjA0MTAxNTIyNDJaMFQxCzAJBgNVBAYTAkZSMRQwEgYDVQQK
DAtEcm9uZSBGbGVldDERMA8GA1UECwwIU2VjdXJpdHkxHDAaBgNVBAMME0Ryb25l
IEZsZWV0IFJvb3QgQ0EwggIiMA0GCSqGSIb3DQEBAQUAA4ICDwAwggIKAoICAQC+
8HNzNzSoPK5m0gXk2y/WJ+dgy4gcrxBnywOPkWPuOLK3dL/Y/HxcKZ15c27oKyZd
IxJmI+0KMTJ31UUhl2QNi1AOg5wVda7E2sVPTbNBCV2CZP2AWTXlSOd5rZ1uSJwP
dW4PBGRDat8McRRg7tJctxn0zN8W0pwaxpkRib49hAICX9B/h+Lje0NLIsOPVX/j
PvU+fPcD15+fq9dEsryby35vyWjyHmGsmuEnIhJ0gwpyR7QtJFnwL0ayvoRscHld
ZTKZDF3JhzieBtRBicFHRJ3Zp6W9WynwgIXGqdPY9vkMtrVDnN0toiHAKYo1O99F
Ka3zJBcKhLYInENgnUauIMJB+/hBtB0IM5KmfTXpuiZMyqsxM9ojCr3h79tmJv5Q
8XzNA8AINTUnm+hfGiPufT1uNxxAqpTRXLaf39FNhlPijpFiwVIKmVkCQUcyO/Im
VqaDzTaYrx9kgg7xfv9cYxmq/8CoUqJ/uRiQb6fVqV7z8DUIGvjZS7WqMgLX4FQw
exC9q93RPB5yNvJkwkA1xhDAE229PB3AWSb1JBZAVlP6zV3K8mtN1JyewRuQeNd5
YQCghlPSGnWDwH1HMNV7gQYuYNwMvKlIY7stxsiWo6Y+LQfBpsSL3t3FplqqrePs
e494gc6QT6K2dD2OiKSlUdUDwk+MsnlejGEjoFzbCQIDAQABo2MwYTAdBgNVHQ4E
FgQUVeJnRq8azbkUy4yEpZC3L3jzR/UwHwYDVR0jBBgwFoAUVeJnRq8azbkUy4yE
pZC3L3jzR/UwDwYDVR0TAQH/BAUwAwEB/zAOBgNVHQ8BAf8EBAMCAYYwDQYJKoZI
hvcNAQELBQADggIBACyNza2JIw/W+B61lrn6LLS9+p5C6lJe5jbnspQCCfP8E6Ao
7ju+icJ5JZP3yY3MohLjGdYxI+1uDmYt2K3Fhu/oPhTtD5WlxbhhDvyQf56ZOnOg
v2kpFTdydr2dUyV8XQq/zA+juZMTMlaRs06o4ObxTHxmL7D9gWvjm+ylynhLCC4G
Sp77uT18VWtQuCJgZAcKtj+fA6jVLMmknBpKnBGBNJtUJla1UPt47INT1/XujM/Y
FIM8VJe0fGZZQEAxa0IgCeI6odPr+cNPcuJE2GettZkmaUDGJCnyx6+NXLAydy1f
0DDi+gEq/8ddV8ESdLhyodtxAGeykQh1lVJSsl/PjG3jvgOgRRXwIWjPL6mdlJQc
uRRvZ3+8ca9fDO+ECVd/mgTvQTaUEqJ3DOX0lDPaOqSTOSHISGgkjJbtezXCDuvG
EpKcfgL4F5tHfP7KNhL4JlCBPGw8p1MFXsdKs3lJixnXz7YXvqGFecJkOKUPwYOK
1wsq1XtAkaU8m+foB1FGm7wi48EbgfkL05wV9cCAqncIgM31irPzyxXvf7ZsBSEB
yZNxIK+T4LJ11yZ6uKUM0GVpbEBHDQQRk6oXsNaORwLs7uWP+Xsws4vwvusXoEPa
XkyEqcha6WWEojndPimdQqm9S9Od7fTAcAaDwClUZtDqlQu/WzXuZAvI0TBC
-----END CERTIFICATE-----
Certificate:
    Data:
        Version: 3 (0x2)
        Serial Number: 4096 (0x1000)
        Signature Algorithm: sha256WithRSAEncryption
        Issuer: C=FR, O=Drone Fleet, OU=Security, CN=Drone Fleet Root CA
        Validity
            Not Before: Mar 11 15:22:44 2026 GMT
            Not After : Mar 11 15:22:44 2027 GMT
        Subject: C=FR, O=Drone Fleet, OU=Security, CN=Drone intermediate CA
        Subject Public Key Info:
            Public Key Algorithm: rsaEncryption
                Public-Key: (4096 bit)
                Modulus:
                    00:cc:15:3e:4e:be:d1:2d:ce:6d:26:bd:a5:77:8e:
                    e8:07:81:ee:26:1b:a3:28:4c:78:68:79:77:a0:1e:
                    ab:84:e3:a2:c6:82:75:6f:11:0d:ed:27:b6:15:18:
                    e6:69:da:d3:7b:c2:51:d0:5f:7e:a2:d5:5b:2a:27:
                    91:fe:a5:3a:7a:49:1a:64:e1:e6:1c:41:6b:29:db:
                    0d:6c:d8:ee:89:f4:d7:5e:9c:16:2d:68:8e:dd:db:
                    db:6a:a6:f2:ae:17:e5:d7:29:79:a7:90:ff:18:02:
                    ef:7c:a5:25:64:61:38:f2:18:97:38:a1:8b:69:e9:
                    6f:22:42:20:c2:5b:3a:ed:50:ec:98:32:5f:b8:0e:
                    cc:b0:77:c9:38:bb:2c:87:bd:cf:bd:f0:79:7e:3b:
                    aa:37:3b:30:a2:d0:7d:0b:bb:74:07:ab:f3:8d:fb:
                    1f:b5:f3:56:09:22:d1:17:9a:b7:36:30:42:8e:d2:
                    9e:00:0c:f0:d4:6d:64:f5:7a:df:86:5d:2e:bb:f2:
                    12:89:ac:c3:2b:ce:35:a4:49:7a:2f:ef:a4:db:ba:
                    e5:7c:30:eb:14:cf:f4:63:56:56:ea:94:1c:5f:8a:
                    6c:ff:10:70:86:8c:ba:dd:82:08:d7:8e:4d:0c:2d:
                    37:69:4c:40:aa:e0:5e:0c:0a:79:13:a6:ff:c6:3b:
                    80:3f:39:31:8e:a9:bd:88:03:22:2e:c2:45:a4:d4:
                    4a:43:8f:01:65:79:57:b7:72:b5:61:a6:7d:26:43:
                    5b:84:3d:57:41:57:da:e1:bd:59:c0:01:94:41:b1:
                    11:86:ea:7a:6b:1d:45:32:27:fb:b3:54:93:f3:e3:
                    6a:82:40:37:1f:f4:c8:9b:f4:da:fd:82:a5:a1:c0:
                    dd:f0:44:2f:19:0f:83:c7:9b:4f:0f:1f:24:cd:0f:
                    44:8f:62:f9:f5:fa:9e:64:22:20:b2:38:27:d8:76:
                    e6:c7:01:82:26:9f:f0:d0:1f:d2:53:ac:52:76:76:
                    35:b8:63:f9:17:e2:bf:ae:f0:5b:3f:73:58:4e:9a:
                    9d:fb:f0:21:9a:2b:42:a1:4f:b3:f0:87:a3:b5:48:
                    79:b3:55:7c:e1:05:f2:34:ff:4f:14:4a:0c:c3:a4:
                    91:67:46:bf:af:0b:42:c0:4a:c6:88:d0:90:4f:1c:
                    65:3c:4b:79:ca:65:c8:5e:f7:4e:70:52:8d:cd:3a:
                    de:d1:42:1b:59:c7:23:a9:08:37:d7:8f:bf:da:be:
                    1a:49:ce:0b:57:48:b7:1b:ae:fd:8d:90:d8:97:3d:
                    39:a4:4b:57:33:b2:b5:e2:c1:19:fb:31:de:16:40:
                    78:5a:04:66:24:03:44:4e:d2:b1:ee:c9:65:d7:e6:
                    bc:6b:49
                Exponent: 65537 (0x10001)
        X509v3 extensions:
            X509v3 Subject Key Identifier: 
                FE:B9:EE:E7:DD:2A:53:81:8E:53:1C:A7:EC:34:39:22:FB:63:D9:A4
            X509v3 Authority Key Identifier: 
                55:E2:67:46:AF:1A:CD:B9:14:CB:8C:84:A5:90:B7:2F:78:F3:47:F5
            X509v3 Basic Constraints: critical
                CA:TRUE, pathlen:0
            X509v3 Key Usage: critical
                Digital Signature, Certificate Sign, CRL Sign
    Signature Algorithm: sha256WithRSAEncryption
    Signature Value:
        28:cf:09:35:91:49:de:f9:7c:c1:dd:c2:9d:6c:87:2d:f8:d6:
        d2:ee:ce:fa:ad:66:ea:2d:b5:e3:a6:a9:ed:1f:8d:69:f5:e8:
        3a:c5:ce:74:77:f7:ba:a2:7b:66:8d:16:8f:2b:68:c4:b5:b4:
        ef:36:37:7a:dd:12:b2:33:e3:b5:c4:b9:d3:6a:84:50:59:7b:
        42:8f:a4:05:2a:51:8c:f8:d8:12:0a:e6:f6:f1:8f:84:ea:68:
        7a:de:6f:b4:e1:b9:13:e0:f6:c0:ca:b0:51:c2:91:f1:3a:0a:
        da:dd:44:4a:c9:78:02:eb:95:81:f4:97:35:5a:82:21:75:f1:
        7c:93:19:2c:59:49:c9:27:2c:e6:e3:95:9b:d2:b2:26:e5:7b:
        fd:a5:98:d1:76:d2:67:8c:70:e4:ac:c3:2d:4b:c6:a6:3c:b0:
        46:ab:79:1f:f4:99:e2:f3:9f:b1:11:9b:39:da:63:44:88:cc:
        f6:7a:4e:4e:64:39:0e:da:26:6c:f8:d4:db:ed:1e:4b:ad:ad:
        0c:96:fa:88:1d:51:66:50:da:79:43:0a:b8:5a:15:eb:bf:24:
        16:66:bf:41:0c:4d:4d:f1:1b:0c:ed:d8:0e:69:aa:e8:1c:19:
        da:59:95:a1:e1:3d:57:40:39:b9:29:3a:ac:51:d3:f9:53:55:
        6c:6a:db:46:7f:69:25:d5:b9:a6:95:28:0f:0c:75:ac:da:56:
        d6:81:cb:e1:62:98:84:b0:71:d4:1b:e9:9a:08:90:ab:ac:87:
        0d:4e:01:33:94:46:06:22:91:34:49:aa:80:b2:21:91:16:f6:
        f8:0f:c7:f5:d7:62:35:58:ee:1b:7f:11:c3:81:4a:8d:bb:5c:
        1d:b8:75:11:65:3b:04:a0:9d:3d:df:2b:c0:c4:ab:bb:05:c2:
        92:53:78:59:1f:fc:14:2e:36:f8:c6:93:0d:eb:92:53:c3:37:
        94:0f:ea:b7:0b:5f:45:5f:88:ac:43:ec:05:81:c1:0c:ec:5c:
        37:4e:72:3b:4f:fc:6e:94:c8:56:c4:be:f5:ee:cf:e9:26:04:
        2d:54:da:0e:d0:93:32:e0:12:f5:fe:30:23:33:1c:90:14:32:
        f1:32:23:03:1a:0a:5d:e0:79:af:e6:b7:e8:05:a3:74:9c:4c:
        64:44:61:a3:3e:a0:b8:69:ed:ad:f9:3e:55:ba:f4:90:7e:89:
        4b:dd:4d:9c:65:b8:cc:35:74:30:7a:a5:b3:71:a9:c9:85:0c:
        fc:ae:56:c6:40:10:a2:9a:30:f3:4b:05:8f:b9:72:fe:b8:43:
        3c:85:a4:95:1f:2d:bf:41:07:d2:c0:7e:86:ce:42:b8:79:54:
        f6:85:bf:50:b2:80:7d:1c
-----BEGIN CERTIFICATE-----
MIIFjDCCA3SgAwIBAgICEAAwDQYJKoZIhvcNAQELBQAwVDELMAkGA1UEBhMCRlIx
FDASBgNVBAoMC0Ryb25lIEZsZWV0MREwDwYDVQQLDAhTZWN1cml0eTEcMBoGA1UE
AwwTRHJvbmUgRmxlZXQgUm9vdCBDQTAeFw0yNjAzMTExNTIyNDRaFw0yNzAzMTEx
NTIyNDRaMFYxCzAJBgNVBAYTAkZSMRQwEgYDVQQKDAtEcm9uZSBGbGVldDERMA8G
A1UECwwIU2VjdXJpdHkxHjAcBgNVBAMMFURyb25lIGludGVybWVkaWF0ZSBDQTCC
AiIwDQYJKoZIhvcNAQEBBQADggIPADCCAgoCggIBAMwVPk6+0S3ObSa9pXeO6AeB
7iYboyhMeGh5d6Aeq4TjosaCdW8RDe0nthUY5mna03vCUdBffqLVWyonkf6lOnpJ
GmTh5hxBaynbDWzY7on0116cFi1ojt3b22qm8q4X5dcpeaeQ/xgC73ylJWRhOPIY
lzihi2npbyJCIMJbOu1Q7JgyX7gOzLB3yTi7LIe9z73weX47qjc7MKLQfQu7dAer
8437H7XzVgki0ReatzYwQo7SngAM8NRtZPV634ZdLrvyEomswyvONaRJei/vpNu6
5Xww6xTP9GNWVuqUHF+KbP8QcIaMut2CCNeOTQwtN2lMQKrgXgwKeROm/8Y7gD85
MY6pvYgDIi7CRaTUSkOPAWV5V7dytWGmfSZDW4Q9V0FX2uG9WcABlEGxEYbqemsd
RTIn+7NUk/PjaoJANx/0yJv02v2CpaHA3fBELxkPg8ebTw8fJM0PRI9i+fX6nmQi
ILI4J9h25scBgiaf8NAf0lOsUnZ2Nbhj+Rfiv67wWz9zWE6anfvwIZorQqFPs/CH
o7VIebNVfOEF8jT/TxRKDMOkkWdGv68LQsBKxojQkE8cZTxLecplyF73TnBSjc06
3tFCG1nHI6kIN9ePv9q+GknOC1dItxuu/Y2Q2Jc9OaRLVzOyteLBGfsx3hZAeFoE
ZiQDRE7Sse7JZdfmvGtJAgMBAAGjZjBkMB0GA1UdDgQWBBT+ue7n3SpTgY5THKfs
NDki+2PZpDAfBgNVHSMEGDAWgBRV4mdGrxrNuRTLjISlkLcvePNH9TASBgNVHRMB
Af8ECDAGAQH/AgEAMA4GA1UdDwEB/wQEAwIBhjANBgkqhkiG9w0BAQsFAAOCAgEA
KM8JNZFJ3vl8wd3CnWyHLfjW0u7O+q1m6i2146ap7R+NafXoOsXOdHf3uqJ7Zo0W
jytoxLW07zY3et0SsjPjtcS502qEUFl7Qo+kBSpRjPjYEgrm9vGPhOpoet5vtOG5
E+D2wMqwUcKR8ToK2t1ESsl4AuuVgfSXNVqCIXXxfJMZLFlJyScs5uOVm9KyJuV7
/aWY0XbSZ4xw5KzDLUvGpjywRqt5H/SZ4vOfsRGbOdpjRIjM9npOTmQ5DtombPjU
2+0eS62tDJb6iB1RZlDaeUMKuFoV678kFma/QQxNTfEbDO3YDmmq6BwZ2lmVoeE9
V0A5uSk6rFHT+VNVbGrbRn9pJdW5ppUoDwx1rNpW1oHL4WKYhLBx1BvpmgiQq6yH
DU4BM5RGBiKRNEmqgLIhkRb2+A/H9ddiNVjuG38Rw4FKjbtcHbh1EWU7BKCdPd8r
wMSruwXCklN4WR/8FC42+MaTDeuSU8M3lA/qtwtfRV+IrEPsBYHBDOxcN05yO0/8
bpTIVsS+9e7P6SYELVTaDtCTMuAS9f4wIzMckBQy8TIjAxoKXeB5r+a36AWjdJxM
ZERhoz6guGntrfk+Vbr0kH6JS91NnGW4zDV0MHqls3GpyYUM/K5WxkAQopow80sF
j7ly/rhDPIWklR8tv0EH0sB+hs5CuHlU9oW/ULKAfRw=
-----END CERTIFICATE-----
-----BEGIN X509 CRL-----
MIICxzCBsAIBATANBgkqhkiG9w0BAQsFADBWMQswCQYDVQQGEwJGUjEUMBIGA1UE
CgwLRHJvbmUgRmxlZXQxETAPBgNVBAsMCFNlY3VyaXR5MR4wHAYDVQQDDBVEcm9u
ZSBpbnRlcm1lZGlhdGUgQ0EXDTI2MDMxMTE1MjI1MFoXDTI2MDQxMDE1MjI1MFow
FTATAgIQAhcNMjYwMzExMTUyMjUwWqAPMA0wCwYDVR0UBAQCAhABMA0GCSqGSIb3
DQEBCwUAA4ICAQCWdQ5fDJkgXUjcrt4WxLpjHDthKc7bBC6CjF7i0ngPiraYD9Vb
lK+rmOtM5hTU9PivzyWui+b59BSXnbg2kuePQqagNXSHWsUoRUzv+2BLaRvY4T1N
4bsRiKOjZotpz9vGZf09Hzz34QRiiNLW6DrpOQIh9a89Wr4J9vNSXu5XzagR6ISn
iQi/eqsUHcBynRjqhJVHShNufw7VUPHvDkI5iaEBOE81915DhRqGpMQTi3PGLHuk
SKy7D+d+MdPPNADF12dV4A39ovw84HZAsTQLMYtTSnoU0EOZp4TGtrADtLMrDGHM
mAJfw6MSAUT0yMoDwJIBouIBE560OuGKi5t+tFpD5SMuV80USsuT5CrWedIiySs/
TCEQYceoyIMdtPq0cEHuTmWvgwBZ7B+96kCl3CZdFLuxoNLjASoAjaV4B++tCAd/
KGxMJV5BmEI3MOfe8Py3lZom28rAP1p4K4GX9N1M75x7112Q0WkBn7/0UWilutpo
XmV/Gmz51BfvUR22QcMSJ+a7NsEJVazLmhs27f7c6gsZJUANmGJPMxNy2zMF470l
tTzIihCWNF5uXsRzyLDUSR/F2yVZDipv3HHalzd2AV3JSfbwTv2eTiI6bEClwTMR
lJE761AvrouzkiDdhZBHpU72IPqEdQCWtJHlyTV52CQV7/6+R2urCr7tHA==
-----END X509 CRL-----
