Certificate:
    Data:
        Version: 3 (0x2)
        Serial Number: 4096 (0x1000)
        Signature Algorithm: sha256WithRSAEncryption
        Issuer: C=FR, O=Drone Fleet, OU=Security, CN=Drone Fleet Root CA
        Validity
            Not Before: Mar  3 08:32:44 2026 GMT
            Not After : Mar  3 08:32:44 2027 GMT
        Subject: C=FR, O=Drone Fleet, OU=Security, CN=Drone intermediate CA
        Subject Public Key Info:
            Public Key Algorithm: rsaEncryption
                Public-Key: (4096 bit)
                Modulus:
                    00:b8:cd:1d:64:65:c0:a4:b3:fb:38:b6:95:1c:84:
                    f6:1b:55:26:97:17:2a:a8:50:38:79:a9:0d:32:c4:
                    a8:bb:45:8b:a3:37:37:3c:d1:a0:12:3b:9f:63:16:
                    84:5e:ce:7c:8e:e8:ef:97:4f:c5:cc:ca:17:b8:b4:
                    62:32:38:ca:c4:dd:bd:d5:39:c9:ac:bf:da:cc:78:
                    b9:5f:4b:6d:b8:bf:e1:e6:36:e9:2e:66:5e:02:c4:
                    54:48:15:d1:2a:bc:b8:2a:a7:2a:27:2e:47:12:a0:
                    46:64:3a:79:3e:3a:61:96:ee:c6:3f:3f:88:c6:51:
                    fd:95:b0:ef:fa:a5:77:ed:3e:30:67:bc:2e:83:d1:
                    f3:cd:9b:32:d9:d9:15:49:dc:26:5e:fb:3a:b0:63:
                    6a:a3:b9:55:7e:be:62:56:83:ca:30:ce:ed:14:e9:
                    b1:85:35:58:d1:99:54:74:74:43:3b:91:39:f2:14:
                    26:56:3d:66:8c:d2:b4:d7:57:41:f2:47:a1:5d:14:
                    b5:9c:9f:6c:31:53:e0:5e:32:d8:8d:49:f4:8e:ab:
                    4a:7b:46:42:c0:bc:77:53:de:2d:32:e8:62:24:72:
                    aa:41:1c:51:fd:02:0a:9b:3e:ac:8b:9c:c7:cc:34:
                    61:62:5f:d5:b0:b8:20:63:e6:ec:80:9e:7d:c6:38:
                    1a:8e:59:6d:4c:a4:3f:88:87:f5:1a:64:ae:bb:e6:
                    a0:9d:85:7c:fd:75:be:72:78:e0:dc:07:a4:92:fb:
                    01:cf:b9:bc:22:5b:f1:65:16:de:cb:fa:4e:be:af:
                    5b:d5:55:43:cf:a4:5c:20:e9:61:61:a0:85:72:d1:
                    fc:fd:ae:fc:69:36:68:6f:f1:a0:d8:09:0d:56:63:
                    26:71:bc:6f:92:e4:8c:18:d3:97:4b:44:c3:8f:e5:
                    8e:6a:21:49:cb:12:41:ab:e1:90:2f:c1:d7:0f:d6:
                    f0:5d:0d:5b:cb:5a:78:ac:26:23:a8:f3:69:8a:ba:
                    38:11:77:f5:6e:4d:c5:7b:6a:1b:3d:84:fe:d6:4f:
                    e7:3d:44:15:d0:f8:4e:24:ef:32:4e:ec:da:e9:b6:
                    fa:ec:94:a2:bf:48:fe:99:b1:32:cf:49:b2:d1:92:
                    5e:49:b0:c4:66:5b:17:e6:50:09:49:62:a0:2a:05:
                    05:41:6b:0a:7f:55:80:96:9d:90:d4:57:1d:2c:9c:
                    e5:4a:64:5c:87:22:df:62:86:c7:3e:87:ad:9f:07:
                    4e:bf:d5:d6:9b:d6:f4:26:e8:69:e9:34:dd:41:c4:
                    44:11:2e:92:8a:ed:2f:aa:2a:5c:8e:6f:a1:60:64:
                    8a:d0:90:d0:c8:fe:f4:0b:c1:03:3a:eb:d2:6f:51:
                    bd:50:b9
                Exponent: 65537 (0x10001)
        X509v3 extensions:
            X509v3 Subject Key Identifier: 
                37:E5:CC:AF:DF:FB:05:E4:AC:97:60:CA:98:74:7D:BF:12:F5:41:3D
            X509v3 Authority Key Identifier: 
                66:04:68:A8:96:76:8C:9E:91:B7:53:E4:38:16:1A:E6:36:1B:D8:AA
            X509v3 Basic Constraints: critical
                CA:TRUE, pathlen:0
            X509v3 Key Usage: critical
                Digital Signature, Certificate Sign, CRL Sign
    Signature Algorithm: sha256WithRSAEncryption
    Signature Value:
        23:93:3e:ac:29:21:20:65:ed:dd:39:6e:63:40:4a:df:4b:8b:
        66:ad:89:c2:d9:85:9d:f0:21:32:36:8c:3e:e5:73:e8:f8:3e:
        2c:c3:c9:52:cd:f0:3b:ec:04:a5:ed:c3:16:64:58:7c:71:36:
        51:8e:00:9e:da:bd:fa:4e:6c:39:9a:24:60:f2:c7:11:6f:9a:
        27:4f:51:43:ce:c7:11:de:7f:30:d8:56:ee:ab:07:95:ab:71:
        4f:c8:2e:5e:fa:0b:00:2d:3d:6f:a4:4c:02:b6:25:07:37:40:
        96:d0:cc:da:9d:46:be:ad:de:66:ce:0d:ab:89:0b:af:83:50:
        88:64:4a:b7:ec:b5:42:00:1e:a5:5f:16:d1:a5:7d:15:16:5e:
        30:43:4a:2b:e0:e7:67:4e:7c:e8:81:1e:af:96:2f:d2:a5:2d:
        7d:a7:dc:3d:f3:c7:18:43:af:4c:82:29:b1:51:af:30:bf:dc:
        09:da:08:1b:3a:3b:45:86:38:16:78:4e:62:f7:bc:59:5c:6a:
        d0:9b:91:1d:e6:96:76:e2:4d:fc:75:72:83:b3:be:76:3a:99:
        13:d5:c2:d0:0e:1d:42:1e:be:8a:2b:32:15:9b:29:96:6c:a7:
        1a:04:37:2e:4d:e5:3b:e5:41:66:f8:2e:49:1c:99:e8:04:2a:
        22:8d:74:3c:bc:c9:ea:85:f5:cf:0e:25:14:79:66:d6:83:b6:
        a3:a5:08:78:02:e7:3c:d1:96:24:cf:6b:3d:e9:df:1d:4a:20:
        29:53:3e:45:ce:d6:10:6e:3f:2d:42:b9:2a:14:3d:a2:71:f1:
        bd:20:2e:d1:54:4a:b1:fd:7c:86:d9:af:51:03:7d:33:f1:d0:
        a8:6d:7b:54:a4:45:b1:cc:7e:8f:6d:8d:7a:b2:2b:f2:77:63:
        60:57:7e:33:a2:b5:c3:0b:02:f7:23:ec:96:48:aa:22:d4:d4:
        e0:13:d4:41:ad:ae:75:fe:d4:1b:2f:50:45:ff:58:a5:05:4b:
        b0:5e:9a:3d:7f:be:24:59:ca:e2:d3:ef:f3:5b:0e:f9:71:50:
        02:03:fb:9f:01:03:32:41:99:99:f5:4d:85:d3:60:6e:89:34:
        32:de:bd:16:d1:ce:1c:6d:ec:ad:ad:8b:a2:f0:e6:b0:f4:ea:
        2f:af:8c:31:8c:19:a5:a1:c4:d9:30:3c:34:16:43:13:2e:ed:
        17:92:0d:fd:4a:36:63:35:07:08:1a:fc:e7:82:be:ba:56:55:
        9f:24:33:b8:4a:4c:1e:16:f6:e3:0f:64:b6:e0:11:cd:e0:79:
        4b:32:8a:e0:c4:14:33:87:05:86:09:90:21:18:e9:ac:cc:52:
        56:1b:62:a5:8d:d9:56:1f
-----BEGIN CERTIFICATE-----
MIIFjDCCA3SgAwIBAgICEAAwDQYJKoZIhvcNAQELBQAwVDELMAkGA1UEBhMCRlIx
FDASBgNVBAoMC0Ryb25lIEZsZWV0MREwDwYDVQQLDAhTZWN1cml0eTEcMBoGA1UE
AwwTRHJvbmUgRmxlZXQgUm9vdCBDQTAeFw0yNjAzMDMwODMyNDRaFw0yNzAzMDMw
ODMyNDRaMFYxCzAJBgNVBAYTAkZSMRQwEgYDVQQKDAtEcm9uZSBGbGVldDERMA8G
A1UECwwIU2VjdXJpdHkxHjAcBgNVBAMMFURyb25lIGludGVybWVkaWF0ZSBDQTCC
AiIwDQYJKoZIhvcNAQEBBQADggIPADCCAgoCggIBALjNHWRlwKSz+zi2lRyE9htV
JpcXKqhQOHmpDTLEqLtFi6M3NzzRoBI7n2MWhF7OfI7o75dPxczKF7i0YjI4ysTd
vdU5yay/2sx4uV9Lbbi/4eY26S5mXgLEVEgV0Sq8uCqnKicuRxKgRmQ6eT46YZbu
xj8/iMZR/ZWw7/qld+0+MGe8LoPR882bMtnZFUncJl77OrBjaqO5VX6+YlaDyjDO
7RTpsYU1WNGZVHR0QzuROfIUJlY9ZozStNdXQfJHoV0UtZyfbDFT4F4y2I1J9I6r
SntGQsC8d1PeLTLoYiRyqkEcUf0CCps+rIucx8w0YWJf1bC4IGPm7ICefcY4Go5Z
bUykP4iH9RpkrrvmoJ2FfP11vnJ44NwHpJL7Ac+5vCJb8WUW3sv6Tr6vW9VVQ8+k
XCDpYWGghXLR/P2u/Gk2aG/xoNgJDVZjJnG8b5LkjBjTl0tEw4/ljmohScsSQavh
kC/B1w/W8F0NW8taeKwmI6jzaYq6OBF39W5NxXtqGz2E/tZP5z1EFdD4TiTvMk7s
2um2+uyUor9I/pmxMs9JstGSXkmwxGZbF+ZQCUlioCoFBUFrCn9VgJadkNRXHSyc
5UpkXIci32KGxz6HrZ8HTr/V1pvW9Cboaek03UHERBEukortL6oqXI5voWBkitCQ
0Mj+9AvBAzrr0m9RvVC5AgMBAAGjZjBkMB0GA1UdDgQWBBQ35cyv3/sF5KyXYMqY
dH2/EvVBPTAfBgNVHSMEGDAWgBRmBGiolnaMnpG3U+Q4FhrmNhvYqjASBgNVHRMB
Af8ECDAGAQH/AgEAMA4GA1UdDwEB/wQEAwIBhjANBgkqhkiG9w0BAQsFAAOCAgEA
I5M+rCkhIGXt3TluY0BK30uLZq2JwtmFnfAhMjaMPuVz6Pg+LMPJUs3wO+wEpe3D
FmRYfHE2UY4Antq9+k5sOZokYPLHEW+aJ09RQ87HEd5/MNhW7qsHlatxT8guXvoL
AC09b6RMArYlBzdAltDM2p1Gvq3eZs4Nq4kLr4NQiGRKt+y1QgAepV8W0aV9FRZe
MENKK+DnZ0586IEer5Yv0qUtfafcPfPHGEOvTIIpsVGvML/cCdoIGzo7RYY4FnhO
Yve8WVxq0JuRHeaWduJN/HVyg7O+djqZE9XC0A4dQh6+iisyFZsplmynGgQ3Lk3l
O+VBZvguSRyZ6AQqIo10PLzJ6oX1zw4lFHlm1oO2o6UIeALnPNGWJM9rPenfHUog
KVM+Rc7WEG4/LUK5KhQ9onHxvSAu0VRKsf18htmvUQN9M/HQqG17VKRFscx+j22N
erIr8ndjYFd+M6K1wwsC9yPslkiqItTU4BPUQa2udf7UGy9QRf9YpQVLsF6aPX++
JFnK4tPv81sO+XFQAgP7nwEDMkGZmfVNhdNgbok0Mt69FtHOHG3sra2LovDmsPTq
L6+MMYwZpaHE2TA8NBZDEy7tF5IN/Uo2YzUHCBr854K+ulZVnyQzuEpMHhb24w9k
tuARzeB5SzKK4MQUM4cFhgmQIRjprMxSVhtipY3ZVh8=
-----END CERTIFICATE-----
-----BEGIN CERTIFICATE-----
MIIFmTCCA4GgAwIBAgIUdAKD7Z88lGrUCYNYSkvnLkTitw0wDQYJKoZIhvcNAQEL
BQAwVDELMAkGA1UEBhMCRlIxFDASBgNVBAoMC0Ryb25lIEZsZWV0MREwDwYDVQQL
DAhTZWN1cml0eTEcMBoGA1UEAwwTRHJvbmUgRmxlZXQgUm9vdCBDQTAeFw0yNjAz
MDMwODMxNTBaFw0yNjA0MDIwODMxNTBaMFQxCzAJBgNVBAYTAkZSMRQwEgYDVQQK
DAtEcm9uZSBGbGVldDERMA8GA1UECwwIU2VjdXJpdHkxHDAaBgNVBAMME0Ryb25l
IEZsZWV0IFJvb3QgQ0EwggIiMA0GCSqGSIb3DQEBAQUAA4ICDwAwggIKAoICAQDe
OU1Gj/Mkjk9izICaZkxtCs0EtYozRmnGBijZdKdA64opUSEUlHAkIuV/HmmzguxS
ny/UAbTPjKEbIlMKejUBVWZLvCXUPB5FXq6SrNl4ivtZzotNzacAC+92Tutpz7VP
gXkyavAvXnV2kvUr6cPAdT36TJ5yO8Mxh+zdLIc313rAEvIGbBYTyursIG5oFGhH
L3+1WdJ/sAPMKxSFHXjSGpH0UAppqDPSJ1OpHOgG7/g0YZKh0a2UhbtRoa1E4fC3
pGd6Of+FyoLWXkvxZzDeGinS9MD+4iSMxFYvkQVRpRRqIHNs7J4ah8aLuBDfxsUJ
ib+FH7jdGa/JHyWlQpeG+ovjNeEB+DJo25txj27hgP8aebhbfVNtAfciZRGjHZMq
i2+abhBneiP9z00Q12lDjts+HFjx7a09IE34VIvQY4UoszeEZzAo6B/2HzBUI6yL
kw/cftp/hE+bPl255nauUAGpSqdpnjg7KalFtivu/AaXmN0mM1HBaZzZmHA8d1HI
A/cZVZ+gzaovTlKhWgzFYVSkb/X8ZUDaMi9rAx6qs+0vasQ5tzf9L7psyDDidvbd
zkBM6aopwQspMCuq17x8C3D/lcoK5UPcKOR91Q98TSLl6LIr+dGxGqtXjX5CvWRJ
Om9OYGp0P2Fkk9/ysjI+uRKhzr7o9g73js3TmSEIAQIDAQABo2MwYTAdBgNVHQ4E
FgQUZgRoqJZ2jJ6Rt1PkOBYa5jYb2KowHwYDVR0jBBgwFoAUZgRoqJZ2jJ6Rt1Pk
OBYa5jYb2KowDwYDVR0TAQH/BAUwAwEB/zAOBgNVHQ8BAf8EBAMCAYYwDQYJKoZI
hvcNAQELBQADggIBAJ3hPtHeunz595erxgUlD/9D+Cc15BVUyGxFev33xKCj68NQ
cdBCCPablPZsCmE63GenY+1vvyg59mzCeQoHu8RrE9aELarK8miJvYghLinkUT/B
Uz0e2VEPovAFZp4SFzfz1fSJnHqBwznH6iOWE8YMC/9OhbVQd2rfEJ9+5OO+w++L
kv7/GxQwqmh5bUQOH5RM1wNf2yWQMOgpX0QQt7+othYjWTfnZgIMg25wuejvRagU
NPvZUfyOFQAe/mlCRPJF3Y5irO0El1DoWCHuJQ9qxEI/Gd8b5PPEzES+ZQGKLV+M
UqYzqf4ODJntDUVSUmrLferrZGdI42Pkk3gk+ti/6uMcR7ff8Gy33S/Gl/7nTEx8
Xky7a2rjjDj0XTTyUO1Lre6PzJ+VURwUTRkBNJuOAISf4xKTjOwbDZgXgxVWD4dt
Sw+z6qPRUae78+FEFUZ2vKY+lWI8dEqOOlP1MIjgii8A2q+hA7EugMb9I7PEKsfT
CVo7/VDxEnZW/n1yBXSVvWDFUiFX6gTYosEGVyxrzpahc2Ly3eYLtvXv6bfzTwfp
ttbXm2yCzXlM9THTFVEOKJL1Oi06m/uwJ6dXtJrzYXqCfwx58AiL/5Kdp4FMayZQ
VXqlvnd/Zwp/pRpbcoelB/exoJYh/UPCkoeRU+bTqhKGdyv1R0sRjd1zbRgp
-----END CERTIFICATE-----
