Certificate:
    Data:
        Version: 3 (0x2)
        Serial Number: 4096 (0x1000)
        Signature Algorithm: sha256WithRSAEncryption
        Issuer: C=FR, O=Drone Fleet, OU=Security, CN=Drone intermediate CA
        Validity
            Not Before: Mar 11 15:22:44 2026 GMT
            Not After : Mar 11 15:22:44 2027 GMT
        Subject: C=FR, O=Drone Fleet, OU=Security, CN=GCS-000
        Subject Public Key Info:
            Public Key Algorithm: rsaEncryption
                Public-Key: (4096 bit)
                Modulus:
                    00:89:1c:0c:90:d9:23:84:85:75:c7:b3:75:d8:92:
                    9e:3f:00:a9:de:8c:b9:61:49:1d:5c:bf:34:54:be:
                    57:fd:2c:b3:40:e9:88:27:7d:16:84:d6:86:36:d6:
                    a2:11:91:84:53:be:e2:0d:a0:24:6d:1b:b9:1e:ba:
                    c1:a0:8a:b3:ca:73:eb:de:ca:ab:9e:d0:17:35:20:
                    59:89:dd:81:9b:14:89:e2:85:b8:ed:d7:a2:7e:8f:
                    1f:a4:76:eb:80:8e:cf:17:50:5e:02:e3:1f:ef:a0:
                    cb:8e:75:b1:5d:6a:6e:4d:9e:8e:1b:c7:34:e3:ca:
                    78:50:d8:fc:15:d8:a3:2e:9c:e3:cf:c9:f2:95:1c:
                    e7:15:43:97:ef:c0:aa:7f:8e:4a:27:ec:d7:71:9a:
                    aa:06:12:16:ff:70:56:65:c3:de:8c:49:53:83:aa:
                    fa:e6:18:1d:90:2e:42:59:90:52:e3:79:fb:54:94:
                    d0:e0:d6:53:79:b4:60:07:ef:fa:2a:1c:c3:d4:74:
                    a4:c4:ad:f0:2d:c0:ee:02:a7:f8:9a:74:84:ad:b5:
                    f1:cb:8e:1a:e0:c8:2d:79:0b:ad:da:c6:5f:39:35:
                    b6:ba:54:85:c1:39:bb:c6:5d:7c:ab:cd:1b:ee:ec:
                    e9:05:61:a0:2c:5e:a2:55:2c:db:96:a9:2b:b9:77:
                    8d:64:8e:df:95:6f:08:86:59:8c:88:95:58:ec:d6:
                    e5:f5:5b:c4:c4:ee:b6:91:2d:ec:d5:3f:33:24:d6:
                    7b:95:52:29:67:aa:f7:cd:87:cc:a1:72:ef:46:48:
                    06:dd:13:50:6c:f7:62:da:21:cb:d6:eb:fd:d4:dd:
                    aa:26:62:b3:92:43:a7:56:66:ea:da:09:ea:d0:5d:
                    31:e7:6c:88:e6:ee:92:b9:c0:ec:ec:b2:f6:5f:bb:
                    47:a6:7f:b6:c5:e5:96:3a:c7:15:95:21:7c:dd:ae:
                    ab:20:e6:f2:cf:af:7f:2d:96:4f:d0:fd:07:70:6d:
                    49:b2:6d:08:a0:28:de:b8:1d:d1:c8:b5:6f:0c:b9:
                    c3:a3:b4:a5:59:36:08:42:ee:b1:2d:e6:bf:1d:cf:
                    63:13:31:cc:81:9d:45:2e:f3:ae:e7:fd:40:42:db:
                    87:a7:61:5d:c8:d7:af:39:0d:4a:95:4f:32:08:bd:
                    c8:10:fa:8b:70:db:a5:2f:02:1b:da:44:6c:80:5a:
                    be:a5:83:3a:21:fc:f6:10:dc:97:86:d8:06:d1:a6:
                    ee:90:5c:1d:97:c5:4e:b8:94:57:ed:d2:2f:a1:c3:
                    c8:f0:57:1e:7f:65:e0:b8:d8:fd:fc:8d:b1:d6:e3:
                    9d:75:bd:19:2e:15:07:ba:e6:09:6b:10:33:a5:fb:
                    9f:f0:fd
                Exponent: 65537 (0x10001)
        X509v3 extensions:
            X509v3 Subject Key Identifier: 
                2E:F0:30:CF:3A:19:A4:03:69:B8:04:EC:1C:65:40:89:47:C2:C9:FA
            X509v3 Basic Constraints: critical
                CA:FALSE
            Netscape Comment: 
                Drone Fleet GCS Server Certificate
            X509v3 Key Usage: critical
                Digital Signature, Key Encipherment
            X509v3 Extended Key Usage: 
                TLS Web Server Authentication
            X509v3 Authority Key Identifier: 
                FE:B9:EE:E7:DD:2A:53:81:8E:53:1C:A7:EC:34:39:22:FB:63:D9:A4
            X509v3 Subject Alternative Name: 
                DNS:localhost, IP Address:127.0.0.1
    Signature Algorithm: sha256WithRSAEncryption
    Signature Value:
        37:8d:24:35:88:f7:42:68:12:fd:b4:0f:f1:1e:89:01:51:8f:
        e8:d8:bd:48:4c:6f:19:72:92:2a:05:75:59:73:6a:32:96:b8:
        06:ad:0f:b7:a1:26:60:3f:3b:43:88:1d:e3:fe:68:85:d2:42:
        3a:b8:e1:ba:26:2c:83:a7:c8:3f:24:3e:10:d0:0f:74:1c:0d:
        26:51:3d:64:fc:fd:02:33:3a:08:15:85:42:9f:03:73:2d:c6:
        ad:06:d2:3f:ce:b7:3b:28:d4:f7:f9:a6:3b:e6:ea:02:20:91:
        a8:ca:2e:5e:fc:c4:66:21:e8:8c:3e:3c:56:e6:98:55:d4:97:
        61:81:81:5f:8c:80:9f:c6:df:64:ce:5d:ef:8f:1d:56:16:5c:
        8b:bb:a6:b1:20:2f:4e:6c:95:a3:1e:7d:31:57:d9:2f:12:1f:
        42:ec:be:18:82:49:8c:38:ee:5f:0e:43:b6:f6:c7:c9:25:32:
        af:1c:d5:d1:bb:e7:34:6e:77:d0:32:d4:60:6c:e0:9f:56:4c:
        94:93:9a:6a:9a:9d:44:67:b2:71:eb:01:87:fb:29:58:c8:cc:
        a2:e6:12:56:84:91:f5:3d:f5:7c:6f:58:91:91:19:75:7e:e2:
        e4:5b:f1:dd:ab:09:f1:69:42:a0:83:25:a5:03:fd:9b:d9:29:
        ca:48:8d:a7:c1:1f:4b:cf:86:86:b7:ab:f6:f7:e2:c1:10:e7:
        fe:89:b8:c9:af:06:9d:0c:eb:3f:49:0e:5b:ad:cf:99:0c:5a:
        12:6f:31:3f:f4:16:2f:d3:94:3f:9c:9f:7e:89:e9:60:0d:49:
        c1:4a:5b:3d:8f:7c:15:a3:c8:f1:42:db:9d:98:28:f0:90:25:
        b4:07:bd:2a:38:30:5c:32:3a:9a:d0:fe:2f:2a:fa:bc:fb:f2:
        54:b4:bc:38:3a:ed:69:a8:2a:11:b6:a7:00:e5:9d:5a:1c:e0:
        19:de:6c:35:1c:b2:c0:a3:44:57:a0:6d:1f:c0:d2:39:36:9f:
        74:f2:e5:a1:0d:57:92:ee:e9:9d:f7:99:f3:1b:0a:4c:0b:66:
        77:a4:ca:cd:bd:c7:fc:96:29:f2:86:6e:a1:91:85:a5:d4:5c:
        95:53:81:f7:ca:6e:6f:62:63:d8:50:11:42:d4:5d:dc:d1:e2:
        2e:0c:db:bb:f4:ed:9b:1c:ef:82:e9:5d:87:0c:5f:64:01:84:
        c1:81:46:f1:de:2e:af:cb:7e:a9:4c:d8:52:c9:87:15:32:bb:
        99:0b:12:4d:ed:84:aa:8d:d7:a5:a8:dd:90:89:44:cc:ca:66:
        5e:a2:47:a5:cd:fc:e5:ac:d5:38:b4:2c:a9:bd:37:fa:5d:2f:
        c9:9d:c3:f2:f7:4f:0d:77
-----BEGIN CERTIFICATE-----
MIIF4DCCA8igAwIBAgICEAAwDQYJKoZIhvcNAQELBQAwVjELMAkGA1UEBhMCRlIx
FDASBgNVBAoMC0Ryb25lIEZsZWV0MREwDwYDVQQLDAhTZWN1cml0eTEeMBwGA1UE
AwwVRHJvbmUgaW50ZXJtZWRpYXRlIENBMB4XDTI2MDMxMTE1MjI0NFoXDTI3MDMx
MTE1MjI0NFowSDELMAkGA1UEBhMCRlIxFDASBgNVBAoMC0Ryb25lIEZsZWV0MREw
DwYDVQQLDAhTZWN1cml0eTEQMA4GA1UEAwwHR0NTLTAwMDCCAiIwDQYJKoZIhvcN
AQEBBQADggIPADCCAgoCggIBAIkcDJDZI4SFdcezddiSnj8Aqd6MuWFJHVy/NFS+
V/0ss0DpiCd9FoTWhjbWohGRhFO+4g2gJG0buR66waCKs8pz697Kq57QFzUgWYnd
gZsUieKFuO3Xon6PH6R264COzxdQXgLjH++gy451sV1qbk2ejhvHNOPKeFDY/BXY
oy6c48/J8pUc5xVDl+/Aqn+OSifs13GaqgYSFv9wVmXD3oxJU4Oq+uYYHZAuQlmQ
UuN5+1SU0ODWU3m0YAfv+iocw9R0pMSt8C3A7gKn+Jp0hK218cuOGuDILXkLrdrG
Xzk1trpUhcE5u8ZdfKvNG+7s6QVhoCxeolUs25apK7l3jWSO35VvCIZZjIiVWOzW
5fVbxMTutpEt7NU/MyTWe5VSKWeq982HzKFy70ZIBt0TUGz3Ytohy9br/dTdqiZi
s5JDp1Zm6toJ6tBdMedsiObukrnA7Oyy9l+7R6Z/tsXlljrHFZUhfN2uqyDm8s+v
fy2WT9D9B3BtSbJtCKAo3rgd0ci1bwy5w6O0pVk2CELusS3mvx3PYxMxzIGdRS7z
ruf9QELbh6dhXcjXrzkNSpVPMgi9yBD6i3DbpS8CG9pEbIBavqWDOiH89hDcl4bY
BtGm7pBcHZfFTriUV+3SL6HDyPBXHn9l4LjY/fyNsdbjnXW9GS4VB7rmCWsQM6X7
n/D9AgMBAAGjgcUwgcIwHQYDVR0OBBYEFC7wMM86GaQDabgE7BxlQIlHwsn6MAwG
A1UdEwEB/wQCMAAwMQYJYIZIAYb4QgENBCQWIkRyb25lIEZsZWV0IEdDUyBTZXJ2
ZXIgQ2VydGlmaWNhdGUwDgYDVR0PAQH/BAQDAgWgMBMGA1UdJQQMMAoGCCsGAQUF
BwMBMB8GA1UdIwQYMBaAFP657ufdKlOBjlMcp+w0OSL7Y9mkMBoGA1UdEQQTMBGC
CWxvY2FsaG9zdIcEfwAAATANBgkqhkiG9w0BAQsFAAOCAgEAN40kNYj3QmgS/bQP
8R6JAVGP6Ni9SExvGXKSKgV1WXNqMpa4Bq0Pt6EmYD87Q4gd4/5ohdJCOrjhuiYs
g6fIPyQ+ENAPdBwNJlE9ZPz9AjM6CBWFQp8Dcy3GrQbSP863OyjU9/mmO+bqAiCR
qMouXvzEZiHojD48VuaYVdSXYYGBX4yAn8bfZM5d748dVhZci7umsSAvTmyVox59
MVfZLxIfQuy+GIJJjDjuXw5DtvbHySUyrxzV0bvnNG530DLUYGzgn1ZMlJOaapqd
RGeycesBh/spWMjMouYSVoSR9T31fG9YkZEZdX7i5Fvx3asJ8WlCoIMlpQP9m9kp
ykiNp8EfS8+Ghrer9vfiwRDn/om4ya8GnQzrP0kOW63PmQxaEm8xP/QWL9OUP5yf
fonpYA1JwUpbPY98FaPI8ULbnZgo8JAltAe9KjgwXDI6mtD+Lyr6vPvyVLS8ODrt
aagqEbanAOWdWhzgGd5sNRyywKNEV6BtH8DSOTafdPLloQ1Xku7pnfeZ8xsKTAtm
d6TKzb3H/JYp8oZuoZGFpdRclVOB98pub2Jj2FARQtRd3NHiLgzbu/Ttmxzvguld
hwxfZAGEwYFG8d4ur8t+qUzYUsmHFTK7mQsSTe2Eqo3XpajdkIlEzMpmXqJHpc38
5azVOLQsqb03+l0vyZ3D8vdPDXc=
-----END CERTIFICATE-----
