Certificate:
    Data:
        Version: 3 (0x2)
        Serial Number: 4096 (0x1000)
        Signature Algorithm: sha256WithRSAEncryption
        Issuer: C=FR, O=Drone Fleet, OU=Security, CN=Drone intermediate CA
        Validity
            Not Before: Mar  3 08:33:59 2026 GMT
            Not After : Mar  3 08:33:59 2027 GMT
        Subject: C=FR, O=Drone Fleet, OU=Security, CN=drone-fr-000
        Subject Public Key Info:
            Public Key Algorithm: rsaEncryption
                Public-Key: (4096 bit)
                Modulus:
                    00:8f:15:ef:f0:1f:c3:a1:31:b0:52:ec:20:90:9d:
                    f0:48:a5:0e:ea:f2:32:9d:d8:c2:51:d5:5b:ef:48:
                    86:e2:ba:39:91:47:16:f7:0a:c3:4c:49:bc:a4:7e:
                    34:0e:bc:12:4f:98:da:a0:04:78:e4:f3:fb:0f:dd:
                    cb:d6:1c:61:b9:74:94:29:6c:2d:25:33:d2:e5:56:
                    d9:c5:14:e5:ed:85:6e:b5:c2:2c:62:89:85:b0:07:
                    c7:c7:b3:3e:f1:48:46:53:8e:38:64:c9:34:f2:0f:
                    9a:8f:7f:46:77:16:24:3a:f3:e9:46:c8:1e:4b:b7:
                    06:10:ad:74:2d:4e:db:89:ba:17:f3:a6:fe:18:8d:
                    61:25:a4:26:1a:8d:7a:ea:80:30:ea:e9:17:5b:c7:
                    01:dc:b2:14:58:82:b3:30:53:e8:06:5d:60:95:41:
                    68:09:a8:d1:97:17:1a:85:2f:2f:47:8f:94:9b:25:
                    53:98:7c:89:87:ee:31:42:f4:8b:0e:6a:08:b5:67:
                    96:ad:cb:70:c4:e7:3a:c1:a0:42:e9:fe:39:78:51:
                    3c:4d:ec:84:20:6b:3e:48:7d:36:05:33:47:b5:0c:
                    13:c9:47:1c:0d:a5:39:44:28:62:3a:6b:94:8d:8f:
                    b1:bd:3c:04:00:51:5f:47:09:f6:06:96:48:58:72:
                    8b:5a:7c:2d:4d:18:bb:83:13:6a:69:d5:62:5c:52:
                    ed:3f:12:e6:89:83:2d:b1:40:3d:23:02:bb:0c:b5:
                    01:4d:a3:2a:54:b3:87:dd:8d:7c:f5:ab:42:88:7e:
                    8b:30:cd:67:35:70:af:c8:74:4c:a9:d8:da:3b:b9:
                    88:7c:0e:76:1b:49:5f:cc:9c:b7:e9:f9:e6:65:37:
                    99:a6:55:ce:32:61:da:dd:66:e2:20:46:6a:dc:5d:
                    0e:ce:a3:d4:eb:a6:f9:4c:7a:9e:08:17:34:ec:dd:
                    96:b3:15:ea:ca:3d:c1:73:0b:3b:58:2f:ee:19:03:
                    7c:b9:85:65:5a:c3:ae:f1:e4:1c:58:06:df:5f:62:
                    2c:80:8c:16:96:c6:8a:9c:56:23:2d:93:2e:03:d0:
                    a3:3c:25:6c:c4:76:fe:ff:f3:b9:73:4c:0f:8f:44:
                    b1:cb:d4:ac:fe:fe:eb:a4:a9:da:e9:80:53:ba:8e:
                    dc:23:80:a1:9d:1b:cd:6a:80:50:f2:38:94:49:1b:
                    2b:81:bb:d6:b2:19:4c:8e:7f:cd:4a:66:9b:46:aa:
                    1c:bf:f3:c5:94:a5:65:b1:d2:27:bb:6a:6c:4d:da:
                    1f:72:a6:2a:be:60:04:c5:87:b8:82:58:5b:42:88:
                    c7:37:c6:d4:9c:89:84:d3:b2:fe:f4:5b:20:f2:c8:
                    1d:3b:a5
                Exponent: 65537 (0x10001)
        X509v3 extensions:
            X509v3 Subject Key Identifier: 
                E1:8E:4C:AC:77:3C:C3:07:90:97:3D:D2:45:4D:21:6F:9A:8E:B0:93
            Netscape Comment: 
                Drone Identity Certificate
            X509v3 Basic Constraints: critical
                CA:FALSE
            X509v3 Authority Key Identifier: 
                37:E5:CC:AF:DF:FB:05:E4:AC:97:60:CA:98:74:7D:BF:12:F5:41:3D
            X509v3 Key Usage: critical
                Digital Signature, Key Encipherment
            X509v3 Extended Key Usage: 
                TLS Web Client Authentication
    Signature Algorithm: sha256WithRSAEncryption
    Signature Value:
        ad:99:96:26:7f:73:27:19:fe:bc:92:d2:f3:d0:96:c2:a2:8e:
        09:80:55:5d:0d:6e:bb:f1:f8:db:4d:61:08:49:e6:96:a7:d0:
        5f:9f:7f:77:61:e3:3a:28:13:b2:9f:0d:ea:9e:7a:39:c7:9c:
        62:a6:5d:74:cc:21:93:7f:eb:b6:75:16:eb:2c:b7:5d:bb:a8:
        12:5f:7e:00:fd:50:25:de:4b:72:71:74:be:e6:29:ef:44:65:
        7e:7d:ee:67:2c:bf:2a:70:0e:f5:f7:69:56:18:07:cb:57:11:
        13:85:65:d7:ab:20:10:ce:12:05:49:e5:5b:61:03:03:bb:a6:
        11:c0:f0:09:c8:b6:81:6d:f6:29:c1:bf:67:04:db:71:0f:8f:
        6a:bc:21:a4:00:f7:6d:d0:81:07:c8:ca:fc:c0:27:59:15:28:
        84:7e:a6:3c:d8:66:01:32:b2:0a:57:3b:e2:da:c4:d2:d1:ae:
        6c:19:7c:22:cc:07:79:f3:d5:e8:7c:c1:de:49:5b:fc:87:19:
        be:1a:7f:4a:20:62:0b:3b:f1:15:83:28:34:4d:a6:96:93:2b:
        b6:23:ad:70:60:3b:2e:d3:63:8d:a5:e3:37:ec:e3:fb:f8:74:
        85:e1:f0:96:69:0f:f5:a9:fd:b7:23:1d:8c:fa:fc:5f:7a:ba:
        78:ba:96:3b:f2:f9:42:86:4f:af:3e:71:b4:b8:7d:b8:ac:e9:
        9c:5c:be:75:0d:c6:00:ea:3e:1d:0c:8c:ab:00:69:3d:2a:9e:
        46:41:4d:17:86:83:46:09:4e:b7:04:47:38:64:3b:ec:de:eb:
        16:60:31:7e:ef:0d:9c:15:f2:cd:d4:9b:56:a1:0e:fe:34:45:
        0c:1e:a7:92:4c:11:aa:43:ff:21:84:87:35:6f:7a:f3:ad:3a:
        eb:d2:7c:b6:d2:74:6b:7c:48:cb:f4:f7:03:74:2c:6f:34:de:
        17:e3:67:d7:80:76:ab:b1:52:b3:e9:93:17:56:5e:fc:b3:6d:
        37:53:4f:aa:39:9a:a3:22:c4:d6:bf:b4:72:f5:b6:e0:13:16:
        d3:da:c0:cd:fa:b5:cc:b1:e0:5e:08:93:71:e2:f4:7b:85:68:
        6a:32:89:34:39:95:0f:fe:e7:52:e1:81:15:2a:63:b7:3c:ba:
        d0:5d:d9:a9:c2:45:d3:e8:ce:87:30:2f:86:5d:65:c0:0e:f4:
        34:02:ff:91:dc:36:c2:f6:18:e6:b1:f0:74:ff:64:e2:73:e9:
        1b:24:f2:a4:be:50:79:3d:1e:44:d9:73:0a:82:e9:2a:cb:f1:
        e9:cc:c1:33:3c:53:50:0a:c6:91:e2:37:97:ad:70:96:5d:f8:
        83:11:a9:1f:3a:8a:26:cf
-----BEGIN CERTIFICATE-----
MIIFwTCCA6mgAwIBAgICEAAwDQYJKoZIhvcNAQELBQAwVjELMAkGA1UEBhMCRlIx
FDASBgNVBAoMC0Ryb25lIEZsZWV0MREwDwYDVQQLDAhTZWN1cml0eTEeMBwGA1UE
AwwVRHJvbmUgaW50ZXJtZWRpYXRlIENBMB4XDTI2MDMwMzA4MzM1OVoXDTI3MDMw
MzA4MzM1OVowTTELMAkGA1UEBhMCRlIxFDASBgNVBAoMC0Ryb25lIEZsZWV0MREw
DwYDVQQLDAhTZWN1cml0eTEVMBMGA1UEAwwMZHJvbmUtZnItMDAwMIICIjANBgkq
hkiG9w0BAQEFAAOCAg8AMIICCgKCAgEAjxXv8B/DoTGwUuwgkJ3wSKUO6vIyndjC
UdVb70iG4ro5kUcW9wrDTEm8pH40DrwST5jaoAR45PP7D93L1hxhuXSUKWwtJTPS
5VbZxRTl7YVutcIsYomFsAfHx7M+8UhGU444ZMk08g+aj39GdxYkOvPpRsgeS7cG
EK10LU7biboX86b+GI1hJaQmGo166oAw6ukXW8cB3LIUWIKzMFPoBl1glUFoCajR
lxcahS8vR4+UmyVTmHyJh+4xQvSLDmoItWeWrctwxOc6waBC6f45eFE8TeyEIGs+
SH02BTNHtQwTyUccDaU5RChiOmuUjY+xvTwEAFFfRwn2BpZIWHKLWnwtTRi7gxNq
adViXFLtPxLmiYMtsUA9IwK7DLUBTaMqVLOH3Y189atCiH6LMM1nNXCvyHRMqdja
O7mIfA52G0lfzJy36fnmZTeZplXOMmHa3WbiIEZq3F0OzqPU66b5THqeCBc07N2W
sxXqyj3Bcws7WC/uGQN8uYVlWsOu8eQcWAbfX2IsgIwWlsaKnFYjLZMuA9CjPCVs
xHb+//O5c0wPj0Sxy9Ss/v7rpKna6YBTuo7cI4ChnRvNaoBQ8jiUSRsrgbvWshlM
jn/NSmabRqocv/PFlKVlsdInu2psTdofcqYqvmAExYe4glhbQojHN8bUnImE07L+
9Fsg8sgdO6UCAwEAAaOBoTCBnjAdBgNVHQ4EFgQU4Y5MrHc8wweQlz3SRU0hb5qO
sJMwKQYJYIZIAYb4QgENBBwWGkRyb25lIElkZW50aXR5IENlcnRpZmljYXRlMAwG
A1UdEwEB/wQCMAAwHwYDVR0jBBgwFoAUN+XMr9/7BeSsl2DKmHR9vxL1QT0wDgYD
VR0PAQH/BAQDAgWgMBMGA1UdJQQMMAoGCCsGAQUFBwMCMA0GCSqGSIb3DQEBCwUA
A4ICAQCtmZYmf3MnGf68ktLz0JbCoo4JgFVdDW678fjbTWEISeaWp9Bfn393YeM6
KBOynw3qnno5x5xipl10zCGTf+u2dRbrLLddu6gSX34A/VAl3ktycXS+5invRGV+
fe5nLL8qcA7192lWGAfLVxEThWXXqyAQzhIFSeVbYQMDu6YRwPAJyLaBbfYpwb9n
BNtxD49qvCGkAPdt0IEHyMr8wCdZFSiEfqY82GYBMrIKVzvi2sTS0a5sGXwizAd5
89XofMHeSVv8hxm+Gn9KIGILO/EVgyg0TaaWkyu2I61wYDsu02ONpeM37OP7+HSF
4fCWaQ/1qf23Ix2M+vxferp4upY78vlChk+vPnG0uH24rOmcXL51DcYA6j4dDIyr
AGk9Kp5GQU0XhoNGCU63BEc4ZDvs3usWYDF+7w2cFfLN1JtWoQ7+NEUMHqeSTBGq
Q/8hhIc1b3rzrTrr0ny20nRrfEjL9PcDdCxvNN4X42fXgHarsVKz6ZMXVl78s203
U0+qOZqjIsTWv7Ry9bbgExbT2sDN+rXMseBeCJNx4vR7hWhqMok0OZUP/udS4YEV
KmO3PLrQXdmpwkXT6M6HMC+GXWXADvQ0Av+R3DbC9hjmsfB0/2Tic+kbJPKkvlB5
PR5E2XMKgukqy/HpzMEzPFNQCsaR4jeXrXCWXfiDEakfOoomzw==
-----END CERTIFICATE-----
