Certificate:
    Data:
        Version: 3 (0x2)
        Serial Number: 4097 (0x1001)
        Signature Algorithm: sha256WithRSAEncryption
        Issuer: C=FR, O=Drone Fleet, OU=Security, CN=Drone intermediate CA
        Validity
            Not Before: Mar  3 08:34:01 2026 GMT
            Not After : Mar  3 08:34:01 2027 GMT
        Subject: C=FR, O=Drone Fleet, OU=Security, CN=drone-fr-001
        Subject Public Key Info:
            Public Key Algorithm: rsaEncryption
                Public-Key: (4096 bit)
                Modulus:
                    00:9b:e2:8a:dc:f4:52:c7:5e:53:67:a1:b7:f1:8d:
                    ad:6e:75:93:92:6e:1d:38:48:11:5c:75:bb:4f:88:
                    54:be:db:11:a2:cc:64:d9:67:79:9b:07:0f:d2:62:
                    da:a4:7f:cd:b8:46:2c:a8:58:73:3d:b5:ea:86:61:
                    9c:a0:66:53:a2:2b:9e:16:d5:96:ea:05:f0:08:54:
                    bd:bb:a5:b6:76:84:c3:bd:91:17:d1:3d:aa:5d:5a:
                    d2:91:4d:99:9a:b3:9c:89:62:63:d6:f0:d4:3f:7b:
                    4b:e1:08:e4:82:b7:5c:91:c5:d3:7c:55:27:a0:e3:
                    5c:40:2f:b5:1d:64:2a:6d:2f:4b:d2:a5:53:d0:7a:
                    1c:9c:c1:b7:aa:ff:ef:66:c2:ed:21:72:82:f1:5a:
                    bd:e2:25:3b:25:e9:04:dd:a7:76:24:52:00:9f:8c:
                    3c:ed:92:25:ea:37:a4:6d:b7:03:6b:2e:6e:f3:dd:
                    fb:c6:0f:fe:e7:f7:de:3b:74:da:e7:86:28:b2:05:
                    40:f5:61:30:ac:f4:3f:ee:7b:7a:5b:04:5f:e8:83:
                    63:dc:fd:7f:1b:be:73:6b:4b:e8:68:c3:0f:37:12:
                    fb:01:6d:2e:b6:23:e1:9c:4b:87:66:7d:02:9a:84:
                    89:7c:01:07:39:cb:ac:5a:79:fa:54:7f:84:6d:25:
                    66:6a:13:c9:97:25:33:53:f5:fa:1d:c3:67:a2:f6:
                    2b:0e:11:8c:6c:a9:3f:5e:9f:30:3a:25:c7:9d:88:
                    8e:30:cc:ee:c0:b3:1a:60:cd:ac:81:45:9c:5e:9e:
                    40:ef:5e:3f:1b:f1:50:db:3f:4b:ab:6c:9d:d3:7e:
                    88:da:e4:2e:3c:fa:53:95:53:10:89:df:4f:c5:8d:
                    09:1e:cc:19:04:ae:8c:c3:5a:6a:17:a5:1f:d1:62:
                    44:65:a3:d6:e1:df:95:a6:4f:a7:8e:c4:ed:3e:b1:
                    c8:36:30:2e:49:1b:f9:76:97:5e:9f:17:3c:d7:b9:
                    50:74:33:c8:0a:9a:04:f8:74:29:ae:16:a8:7e:d8:
                    f5:15:c5:8b:e6:0d:44:3b:12:79:ce:f3:a8:e7:02:
                    34:8b:45:ba:c7:75:f7:9a:04:94:16:98:3d:b1:57:
                    5a:b9:3a:cc:8e:75:cd:99:2b:7e:f0:85:78:3a:44:
                    85:69:e4:22:27:b9:e0:ee:a2:e5:7b:9a:6f:ec:9d:
                    24:ce:19:7b:e3:57:e7:d9:2c:7a:76:78:ab:92:af:
                    c9:ab:17:6b:23:57:26:8c:cf:48:cd:55:90:1e:bd:
                    07:a2:31:08:3b:84:68:5f:b2:31:38:d1:ee:cd:91:
                    cd:6f:60:d8:6f:1b:11:4e:bb:94:5d:bb:cd:a9:cb:
                    9d:a4:8f
                Exponent: 65537 (0x10001)
        X509v3 extensions:
            X509v3 Subject Key Identifier: 
                83:50:BF:25:C8:5D:23:5E:82:47:A9:55:06:59:8B:58:54:E0:27:F0
            Netscape Comment: 
                Drone Identity Certificate
            X509v3 Basic Constraints: critical
                CA:FALSE
            X509v3 Authority Key Identifier: 
                37:E5:CC:AF:DF:FB:05:E4:AC:97:60:CA:98:74:7D:BF:12:F5:41:3D
            X509v3 Key Usage: critical
                Digital Signature, Key Encipherment
            X509v3 Extended Key Usage: 
                TLS Web Client Authentication
    Signature Algorithm: sha256WithRSAEncryption
    Signature Value:
        22:01:57:bf:7f:9f:b6:4e:88:b9:26:7c:d0:1d:dc:3e:10:c7:
        67:65:bb:78:7c:e7:ff:96:d2:27:d1:18:f8:b6:73:c8:91:90:
        87:1d:6e:1f:2b:43:e5:a5:03:67:9e:01:4e:69:62:ad:e5:3c:
        ca:15:3a:0b:b2:1e:36:74:5c:58:10:7e:54:ac:48:1c:39:10:
        09:99:49:67:f6:4e:23:61:e0:d6:b5:9d:be:fa:f7:c4:76:9b:
        5c:d9:81:f7:f1:18:3c:1e:fc:0a:e1:60:4e:89:58:7f:c9:d5:
        2d:93:a1:ed:3f:73:08:3c:7e:47:cb:ac:c5:a5:d3:e0:8c:ed:
        dd:21:44:90:c3:73:33:9e:f0:07:6c:b9:8d:b7:e2:83:77:2c:
        e7:35:b7:ab:75:ce:5b:60:d2:4e:44:9f:32:03:9a:0a:59:eb:
        bc:73:f1:a9:80:c0:ab:da:44:df:af:cf:39:cf:56:d2:f1:c5:
        e5:0b:b1:59:22:db:25:e1:ff:56:ef:ed:ee:7a:2b:ad:3c:4a:
        c4:5d:85:92:3a:b1:d0:7a:73:76:80:b7:fc:e8:a9:53:29:6f:
        eb:f0:c0:c8:0a:4d:d1:f3:c1:9f:ad:2e:35:e2:b7:21:dd:52:
        b2:a9:07:f4:d1:53:5d:99:00:f8:e2:9c:e4:c4:c3:ca:27:bc:
        75:6e:83:74:03:84:cb:18:62:33:41:d0:23:af:75:d4:ed:eb:
        72:67:c6:64:43:8f:8f:58:cb:0b:ca:8b:24:73:39:2a:67:e5:
        4c:70:6d:58:7c:b1:62:81:e8:a0:fc:11:46:85:5c:fb:53:43:
        45:49:9b:77:ae:f3:ee:cd:08:ef:ec:af:c6:36:c6:b6:14:1b:
        2a:d5:96:f9:f9:9d:dd:c2:6c:67:82:d8:6e:af:f4:da:ee:fe:
        ec:89:e2:7b:1e:2b:b4:31:72:1f:6d:f8:dd:4e:e2:00:96:af:
        02:e1:12:af:3e:03:98:bf:7b:c9:9e:f9:f0:eb:e2:9a:ee:72:
        37:71:58:01:01:96:cd:a5:c2:b8:cf:6b:54:a0:b0:69:2a:60:
        2b:78:37:a1:da:08:4a:cf:18:ab:1e:15:f8:a0:d8:6c:65:9b:
        0b:f9:6a:68:7b:2d:72:6a:96:ae:dc:a9:2d:58:b5:1c:21:7b:
        2f:3f:3e:33:4e:03:99:0e:6f:d2:16:1a:97:30:62:6c:de:4d:
        b2:ae:e5:12:0a:6c:62:c7:5f:0d:5e:62:9f:49:56:58:3a:96:
        85:29:e5:91:d1:13:54:4a:00:33:bf:0f:a9:e9:5b:1b:f2:76:
        2b:da:49:2e:ee:2d:bd:d3:ac:b1:01:9c:a2:c5:24:5f:5a:a9:
        44:c5:5e:fa:9d:00:aa:c0
-----BEGIN CERTIFICATE-----
MIIFwTCCA6mgAwIBAgICEAEwDQYJKoZIhvcNAQELBQAwVjELMAkGA1UEBhMCRlIx
FDASBgNVBAoMC0Ryb25lIEZsZWV0MREwDwYDVQQLDAhTZWN1cml0eTEeMBwGA1UE
AwwVRHJvbmUgaW50ZXJtZWRpYXRlIENBMB4XDTI2MDMwMzA4MzQwMVoXDTI3MDMw
MzA4MzQwMVowTTELMAkGA1UEBhMCRlIxFDASBgNVBAoMC0Ryb25lIEZsZWV0MREw
DwYDVQQLDAhTZWN1cml0eTEVMBMGA1UEAwwMZHJvbmUtZnItMDAxMIICIjANBgkq
hkiG9w0BAQEFAAOCAg8AMIICCgKCAgEAm+KK3PRSx15TZ6G38Y2tbnWTkm4dOEgR
XHW7T4hUvtsRosxk2Wd5mwcP0mLapH/NuEYsqFhzPbXqhmGcoGZToiueFtWW6gXw
CFS9u6W2doTDvZEX0T2qXVrSkU2ZmrOciWJj1vDUP3tL4QjkgrdckcXTfFUnoONc
QC+1HWQqbS9L0qVT0HocnMG3qv/vZsLtIXKC8Vq94iU7JekE3ad2JFIAn4w87ZIl
6jekbbcDay5u8937xg/+5/feO3Ta54YosgVA9WEwrPQ/7nt6WwRf6INj3P1/G75z
a0voaMMPNxL7AW0utiPhnEuHZn0CmoSJfAEHOcusWnn6VH+EbSVmahPJlyUzU/X6
HcNnovYrDhGMbKk/Xp8wOiXHnYiOMMzuwLMaYM2sgUWcXp5A714/G/FQ2z9Lq2yd
036I2uQuPPpTlVMQid9PxY0JHswZBK6Mw1pqF6Uf0WJEZaPW4d+Vpk+njsTtPrHI
NjAuSRv5dpdenxc817lQdDPICpoE+HQprhaoftj1FcWL5g1EOxJ5zvOo5wI0i0W6
x3X3mgSUFpg9sVdauTrMjnXNmSt+8IV4OkSFaeQiJ7ng7qLle5pv7J0kzhl741fn
2Sx6dnirkq/JqxdrI1cmjM9IzVWQHr0HojEIO4RoX7IxONHuzZHNb2DYbxsRTruU
XbvNqcudpI8CAwEAAaOBoTCBnjAdBgNVHQ4EFgQUg1C/JchdI16CR6lVBlmLWFTg
J/AwKQYJYIZIAYb4QgENBBwWGkRyb25lIElkZW50aXR5IENlcnRpZmljYXRlMAwG
A1UdEwEB/wQCMAAwHwYDVR0jBBgwFoAUN+XMr9/7BeSsl2DKmHR9vxL1QT0wDgYD
VR0PAQH/BAQDAgWgMBMGA1UdJQQMMAoGCCsGAQUFBwMCMA0GCSqGSIb3DQEBCwUA
A4ICAQAiAVe/f5+2Toi5JnzQHdw+EMdnZbt4fOf/ltIn0Rj4tnPIkZCHHW4fK0Pl
pQNnngFOaWKt5TzKFToLsh42dFxYEH5UrEgcORAJmUln9k4jYeDWtZ2++vfEdptc
2YH38Rg8HvwK4WBOiVh/ydUtk6HtP3MIPH5Hy6zFpdPgjO3dIUSQw3MznvAHbLmN
t+KDdyznNberdc5bYNJORJ8yA5oKWeu8c/GpgMCr2kTfr885z1bS8cXlC7FZItsl
4f9W7+3ueiutPErEXYWSOrHQenN2gLf86KlTKW/r8MDICk3R88GfrS414rch3VKy
qQf00VNdmQD44pzkxMPKJ7x1boN0A4TLGGIzQdAjr3XU7etyZ8ZkQ4+PWMsLyosk
czkqZ+VMcG1YfLFigeig/BFGhVz7U0NFSZt3rvPuzQjv7K/GNsa2FBsq1Zb5+Z3d
wmxngthur/Ta7v7sieJ7Hiu0MXIfbfjdTuIAlq8C4RKvPgOYv3vJnvnw6+Ka7nI3
cVgBAZbNpcK4z2tUoLBpKmAreDeh2ghKzxirHhX4oNhsZZsL+Wpoey1yapau3Kkt
WLUcIXsvPz4zTgOZDm/SFhqXMGJs3k2yruUSCmxix18NXmKfSVZYOpaFKeWR0RNU
SgAzvw+p6Vsb8nYr2kku7i2906yxAZyixSRfWqlExV76nQCqwA==
-----END CERTIFICATE-----
