Certificate:
    Data:
        Version: 3 (0x2)
        Serial Number: 4099 (0x1003)
        Signature Algorithm: sha256WithRSAEncryption
        Issuer: C=FR, O=Drone Fleet, OU=Security, CN=Drone intermediate CA
        Validity
            Not Before: Mar  3 08:34:18 2026 GMT
            Not After : Mar  3 08:34:18 2027 GMT
        Subject: C=FR, O=Drone Fleet, OU=Security, CN=GCS-000
        Subject Public Key Info:
            Public Key Algorithm: rsaEncryption
                Public-Key: (4096 bit)
                Modulus:
                    00:b3:80:68:a6:bf:2e:aa:69:d2:86:14:de:10:04:
                    5a:c6:18:21:34:1b:d0:58:c9:4a:a4:55:e5:ea:25:
                    32:8d:0f:ff:c6:db:2a:54:d9:98:13:70:4a:41:6b:
                    63:50:1e:9c:d9:39:fd:33:00:3f:6f:4f:49:dc:6a:
                    c7:93:fa:53:43:09:d1:ad:b0:c7:d3:b0:03:0e:fe:
                    a6:a4:db:ae:c8:cb:f8:bc:60:82:a1:e0:2e:1d:00:
                    cc:e0:b1:7b:a1:8c:6e:49:29:d4:b3:9b:a2:7f:87:
                    46:32:78:90:93:38:0d:9b:a5:9a:75:c6:8f:a4:ce:
                    b1:eb:41:6c:f7:4c:5f:90:fe:82:b3:00:e6:dd:f8:
                    00:c9:f3:53:81:2d:bf:63:e9:d9:30:fe:d6:5f:3d:
                    a3:c7:24:3b:32:58:81:97:47:d6:33:54:ca:99:4c:
                    89:c2:56:d8:78:a9:21:4c:b4:f9:6a:cf:f2:36:74:
                    75:46:9f:21:d7:e9:77:56:6d:61:82:ee:23:40:f3:
                    90:3d:4f:d2:19:f2:40:7f:ca:96:06:32:a1:e2:da:
                    cf:c2:3c:a2:c3:57:d0:66:cc:ab:b5:72:61:fb:6f:
                    94:e1:23:6d:a7:43:8a:e1:76:5f:87:e3:88:e4:6e:
                    8c:f2:35:38:d3:08:4e:11:c6:ad:bb:c6:db:93:21:
                    b8:a3:fc:60:55:75:4a:3e:ff:fd:3e:e3:f1:b2:4f:
                    67:e8:11:c2:33:ac:5c:68:b0:77:eb:f3:45:8b:4f:
                    33:b3:69:00:6b:76:87:04:57:1c:1a:83:ec:77:8d:
                    aa:f2:a8:bc:92:de:3c:3b:a6:da:b5:25:66:20:91:
                    9e:69:fb:78:49:bb:b6:e7:62:b1:bc:e6:7c:b3:82:
                    3a:84:6e:e5:6d:ad:40:09:d0:d3:b7:c8:d4:de:32:
                    51:c2:82:8b:af:44:d5:b5:59:69:06:56:b2:0d:e2:
                    34:8b:3f:a6:25:65:85:6f:91:e7:46:a8:bd:7f:84:
                    10:4b:e1:40:5b:4b:90:30:e0:33:c5:df:44:2d:28:
                    fa:92:6d:ab:8c:ea:36:61:eb:f4:99:b6:cd:e6:98:
                    28:1d:b2:10:5e:00:d8:0c:71:d6:13:17:b7:6b:ff:
                    cb:43:f0:ea:96:98:2e:81:ce:f7:ba:5b:15:4f:1e:
                    2f:28:81:2c:27:ea:9c:36:32:e7:c5:a0:07:4b:4f:
                    68:c6:4c:82:25:0b:72:3c:d7:00:b2:75:b5:55:3e:
                    4e:5d:6a:4a:5f:6f:c6:0b:bb:02:f5:77:2d:c8:b8:
                    bf:d8:6a:30:d3:8e:1e:b5:b8:52:b1:37:54:37:85:
                    e8:c6:83:72:c9:6d:09:49:7e:c6:de:48:d7:37:96:
                    fc:b2:df
                Exponent: 65537 (0x10001)
        X509v3 extensions:
            X509v3 Subject Key Identifier: 
                11:18:3F:08:2F:35:7F:BD:AA:AA:E8:3A:07:AE:FB:B5:90:16:4D:07
            X509v3 Basic Constraints: critical
                CA:FALSE
            Netscape Comment: 
                Drone Fleet GCS Server Certificate
            X509v3 Key Usage: critical
                Digital Signature, Key Encipherment
            X509v3 Extended Key Usage: 
                TLS Web Server Authentication
            X509v3 Authority Key Identifier: 
                37:E5:CC:AF:DF:FB:05:E4:AC:97:60:CA:98:74:7D:BF:12:F5:41:3D
            X509v3 Subject Alternative Name: 
                DNS:localhost, IP Address:127.0.0.1
    Signature Algorithm: sha256WithRSAEncryption
    Signature Value:
        0b:bf:56:c3:6a:9d:1e:88:0d:e3:05:52:d4:51:3e:4c:0b:9d:
        34:2f:cd:11:28:f1:fa:ec:a6:80:bb:9c:e4:b9:b3:89:91:20:
        d1:b5:22:62:09:b9:7c:9d:56:17:80:09:3e:c0:a3:48:2e:8e:
        e3:56:93:06:99:33:ba:4e:77:68:fe:cb:aa:5d:1c:b7:b0:d9:
        13:3d:c6:b4:9b:ae:97:62:2f:81:97:2f:7c:6d:7e:e6:c0:8b:
        a5:77:6c:46:0f:1b:ac:40:80:2a:76:ca:d1:2a:78:83:d8:79:
        7a:8d:c0:0b:c8:c4:d4:4f:64:92:84:f3:7f:7a:0e:87:10:19:
        6e:a4:69:7a:fc:5b:fa:43:aa:b7:df:01:cd:89:ce:7d:be:17:
        96:29:4e:94:27:fb:57:9b:a7:19:cc:6a:49:d7:45:47:97:5d:
        3c:4b:62:b6:5f:12:f8:11:7a:05:e8:2f:72:9c:06:b9:b8:6e:
        4d:34:c4:5e:5a:38:f9:0d:78:ed:4a:d0:51:0b:63:e0:9d:8a:
        0d:f9:84:da:64:6f:c6:c8:3b:8b:13:4b:b9:7d:2a:ad:67:82:
        38:34:f9:ba:dc:8c:4e:f6:83:43:8c:54:0b:e2:df:13:98:22:
        fa:07:dd:b4:a9:cf:59:ef:24:27:e1:08:d2:56:4d:16:3b:57:
        1c:6a:8a:4c:f5:d9:69:ae:e6:86:ef:2f:39:de:77:7e:b1:dc:
        bb:2c:22:85:06:ee:47:60:0a:56:be:67:36:ee:5c:87:d9:b9:
        5d:17:86:24:01:fb:1e:ef:cf:c8:0f:2e:31:3e:d9:44:94:02:
        0e:e6:f8:b5:e2:21:b9:c8:3a:37:c4:ec:3c:2a:12:05:19:8b:
        77:f1:eb:c4:7e:96:c2:40:e7:f8:a4:4c:3c:68:b7:7d:55:aa:
        78:e7:38:18:78:31:89:15:8d:bf:a3:43:dd:43:39:c2:e4:4e:
        ce:c7:33:62:4d:7a:f2:1b:71:de:db:e1:d8:80:e8:35:2c:d4:
        67:d5:2a:5d:99:0d:d9:61:96:c3:99:1f:e8:ab:f8:62:ee:59:
        fb:ab:a6:c8:30:7e:ba:79:e0:0d:7b:c6:e8:47:e3:91:bb:c1:
        c0:34:f4:eb:09:d4:0e:09:34:2a:a0:52:f1:ba:ea:f0:c9:3a:
        2c:07:e7:52:79:b1:3a:96:6b:c9:e2:d5:55:b8:02:28:d5:57:
        68:ec:94:0d:67:1a:3a:41:df:93:db:cd:00:2f:7d:75:db:5a:
        a6:ff:db:35:4f:88:67:49:48:33:31:99:cc:85:da:0c:32:ff:
        c7:e5:9b:dc:a4:07:9b:34:a8:c0:bb:f1:53:21:38:35:8a:ce:
        55:e1:87:bd:02:e9:74:83
-----BEGIN CERTIFICATE-----
MIIF4DCCA8igAwIBAgICEAMwDQYJKoZIhvcNAQELBQAwVjELMAkGA1UEBhMCRlIx
FDASBgNVBAoMC0Ryb25lIEZsZWV0MREwDwYDVQQLDAhTZWN1cml0eTEeMBwGA1UE
AwwVRHJvbmUgaW50ZXJtZWRpYXRlIENBMB4XDTI2MDMwMzA4MzQxOFoXDTI3MDMw
MzA4MzQxOFowSDELMAkGA1UEBhMCRlIxFDASBgNVBAoMC0Ryb25lIEZsZWV0MREw
DwYDVQQLDAhTZWN1cml0eTEQMA4GA1UEAwwHR0NTLTAwMDCCAiIwDQYJKoZIhvcN
AQEBBQADggIPADCCAgoCggIBALOAaKa/Lqpp0oYU3hAEWsYYITQb0FjJSqRV5eol
Mo0P/8bbKlTZmBNwSkFrY1AenNk5/TMAP29PSdxqx5P6U0MJ0a2wx9OwAw7+pqTb
rsjL+LxggqHgLh0AzOCxe6GMbkkp1LObon+HRjJ4kJM4DZulmnXGj6TOsetBbPdM
X5D+grMA5t34AMnzU4Etv2Pp2TD+1l89o8ckOzJYgZdH1jNUyplMicJW2HipIUy0
+WrP8jZ0dUafIdfpd1ZtYYLuI0DzkD1P0hnyQH/KlgYyoeLaz8I8osNX0GbMq7Vy
YftvlOEjbadDiuF2X4fjiORujPI1ONMIThHGrbvG25MhuKP8YFV1Sj7//T7j8bJP
Z+gRwjOsXGiwd+vzRYtPM7NpAGt2hwRXHBqD7HeNqvKovJLePDum2rUlZiCRnmn7
eEm7tudisbzmfLOCOoRu5W2tQAnQ07fI1N4yUcKCi69E1bVZaQZWsg3iNIs/piVl
hW+R50aovX+EEEvhQFtLkDDgM8XfRC0o+pJtq4zqNmHr9Jm2zeaYKB2yEF4A2Axx
1hMXt2v/y0Pw6paYLoHO97pbFU8eLyiBLCfqnDYy58WgB0tPaMZMgiULcjzXALJ1
tVU+Tl1qSl9vxgu7AvV3Lci4v9hqMNOOHrW4UrE3VDeF6MaDcsltCUl+xt5I1zeW
/LLfAgMBAAGjgcUwgcIwHQYDVR0OBBYEFBEYPwgvNX+9qqroOgeu+7WQFk0HMAwG
A1UdEwEB/wQCMAAwMQYJYIZIAYb4QgENBCQWIkRyb25lIEZsZWV0IEdDUyBTZXJ2
ZXIgQ2VydGlmaWNhdGUwDgYDVR0PAQH/BAQDAgWgMBMGA1UdJQQMMAoGCCsGAQUF
BwMBMB8GA1UdIwQYMBaAFDflzK/f+wXkrJdgyph0fb8S9UE9MBoGA1UdEQQTMBGC
CWxvY2FsaG9zdIcEfwAAATANBgkqhkiG9w0BAQsFAAOCAgEAC79Ww2qdHogN4wVS
1FE+TAudNC/NESjx+uymgLuc5LmziZEg0bUiYgm5fJ1WF4AJPsCjSC6O41aTBpkz
uk53aP7Lql0ct7DZEz3GtJuul2IvgZcvfG1+5sCLpXdsRg8brECAKnbK0Sp4g9h5
eo3AC8jE1E9kkoTzf3oOhxAZbqRpevxb+kOqt98BzYnOfb4XlilOlCf7V5unGcxq
SddFR5ddPEtitl8S+BF6BegvcpwGubhuTTTEXlo4+Q147UrQUQtj4J2KDfmE2mRv
xsg7ixNLuX0qrWeCODT5utyMTvaDQ4xUC+LfE5gi+gfdtKnPWe8kJ+EI0lZNFjtX
HGqKTPXZaa7mhu8vOd53frHcuywihQbuR2AKVr5nNu5ch9m5XReGJAH7Hu/PyA8u
MT7ZRJQCDub4teIhucg6N8TsPCoSBRmLd/HrxH6WwkDn+KRMPGi3fVWqeOc4GHgx
iRWNv6ND3UM5wuROzsczYk168htx3tvh2IDoNSzUZ9UqXZkN2WGWw5kf6Kv4Yu5Z
+6umyDB+unngDXvG6EfjkbvBwDT06wnUDgk0KqBS8brq8Mk6LAfnUnmxOpZryeLV
VbgCKNVXaOyUDWcaOkHfk9vNAC99ddtapv/bNU+IZ0lIMzGZzIXaDDL/x+Wb3KQH
mzSowLvxUyE4NYrOVeGHvQLpdIM=
-----END CERTIFICATE-----
