Certificate:
    Data:
        Version: 3 (0x2)
        Serial Number: 4096 (0x1000)
        Signature Algorithm: sha256WithRSAEncryption
        Issuer: C=FR, O=Drone Fleet, OU=Security, CN=Drone Issue CA
        Validity
            Not Before: Mar  2 02:55:00 2026 GMT
            Not After : Mar  2 02:55:00 2027 GMT
        Subject: C=FR, O=Drone Fleet, OU=Security, CN=drone-000
        Subject Public Key Info:
            Public Key Algorithm: rsaEncryption
                Public-Key: (4096 bit)
                Modulus:
                    00:a8:bd:58:cc:7e:5a:8a:df:1b:d5:fe:af:5c:a1:
                    52:47:f2:9a:bf:f0:b7:45:f7:1b:f6:69:80:23:c0:
                    bf:1b:cd:a6:21:e7:50:4d:6b:10:e1:74:97:f3:8d:
                    b2:f4:25:9a:1a:4f:e0:af:16:77:7d:36:39:31:a3:
                    b3:67:dd:58:f1:9f:e6:5d:86:83:70:07:f1:f0:83:
                    52:ad:db:40:5b:b0:1d:94:2f:8c:1c:d4:f2:c5:4d:
                    71:59:af:d4:82:ab:12:b6:c6:27:ab:3b:41:30:1f:
                    a3:94:6b:31:49:e4:c4:8c:11:72:fc:b9:e1:82:49:
                    bc:78:c4:d4:c2:33:8f:5e:18:7e:8b:0c:eb:f9:5c:
                    6f:83:18:b5:f6:70:fb:64:c4:79:5e:b9:70:ec:0a:
                    a5:5e:ab:57:5d:a8:18:cd:ee:0b:37:3f:15:1a:9a:
                    79:6c:6e:75:26:79:07:e9:f1:13:06:8f:66:01:33:
                    e1:5b:4f:f7:74:b1:4c:d5:ad:dc:17:67:45:5d:d0:
                    40:9a:0c:e4:02:33:cc:96:e8:a8:16:96:b9:75:06:
                    33:aa:56:43:ce:84:39:6c:c2:f5:26:0d:cd:42:03:
                    8d:1b:35:83:a9:67:59:5c:f8:67:d4:83:29:de:0c:
                    2c:0e:bc:59:e3:af:c3:75:f4:89:14:4d:a2:d9:f3:
                    05:c4:b8:bc:65:58:6a:32:f7:fe:76:31:b0:fa:b0:
                    87:36:9b:62:5e:51:fe:6d:05:0a:c7:41:2e:5a:2a:
                    a6:b1:d8:09:32:69:4e:d7:4d:a1:fc:3d:38:58:96:
                    ee:04:3c:a3:5e:df:b9:42:92:1d:f6:54:7c:c9:3b:
                    70:fb:45:2f:2d:73:4e:12:62:f1:df:32:e5:7c:33:
                    b7:b0:bd:51:34:4f:43:3b:7e:ba:61:1c:6b:29:b4:
                    92:83:4f:b2:ff:b1:a5:d8:a0:57:7e:84:ac:e2:1f:
                    26:62:5d:d6:48:89:61:dc:99:42:ae:9c:ce:3b:24:
                    82:57:ef:24:4b:8e:59:de:94:ca:6c:3c:ba:04:75:
                    12:ae:96:d9:04:f8:08:b2:e1:35:5d:e2:6c:95:07:
                    de:93:8d:3b:4c:98:4c:08:86:1d:93:6c:37:a7:51:
                    77:af:39:51:f2:59:3d:73:d7:4a:48:02:84:ad:14:
                    b4:51:f9:db:01:3d:e2:ef:7c:94:4d:a2:fa:23:bc:
                    0a:64:42:18:08:a7:4f:f0:7f:27:e9:5c:58:78:e0:
                    23:4f:b7:cd:68:7c:07:d3:3b:e2:aa:d1:40:36:6a:
                    23:49:81:44:7b:a5:41:f1:c8:aa:fc:28:c5:73:94:
                    f5:55:6f:b1:89:08:d1:e2:68:4d:d5:d6:5f:b3:73:
                    2a:7e:63
                Exponent: 65537 (0x10001)
        X509v3 extensions:
            X509v3 Subject Key Identifier: 
                F5:DE:23:89:47:48:0F:A8:56:2E:CE:4D:44:5E:31:E7:C5:57:C4:77
            X509v3 Authority Key Identifier: 
                0A:B2:78:A2:A8:9C:80:B3:EF:69:A5:A8:B3:A3:06:8E:95:00:30:3D
            X509v3 Basic Constraints: critical
                CA:TRUE, pathlen:0
            X509v3 Key Usage: critical
                Digital Signature, Certificate Sign, CRL Sign
    Signature Algorithm: sha256WithRSAEncryption
    Signature Value:
        cb:e6:39:36:ba:49:22:89:90:f2:07:93:86:d3:da:9b:3c:40:
        32:f0:d6:fb:aa:f3:97:e9:18:75:88:b7:de:ac:2f:06:fc:1d:
        2e:10:d1:52:4f:59:e2:33:f3:b9:0a:78:38:4e:a1:0f:31:2d:
        df:da:db:bf:0b:25:d1:5e:f1:8d:0a:24:ca:48:91:a6:10:1e:
        9a:a1:93:ea:ef:4c:0a:ea:2d:32:af:ad:c8:ee:e7:7c:5f:14:
        d6:26:f0:05:1d:41:90:df:d8:2c:ee:9e:37:57:68:be:f1:16:
        20:24:35:65:42:04:7b:b5:30:74:60:d0:bc:f5:d6:b1:bf:14:
        60:f6:7b:3c:a8:59:9a:19:31:0b:83:42:22:8a:d8:c9:93:21:
        4b:54:a8:82:44:43:af:fc:63:a0:33:ca:e0:0d:ea:ad:83:b4:
        c8:ac:58:4c:f8:0f:e3:3b:cc:8c:63:0d:81:39:57:50:a4:9d:
        3f:96:34:83:b5:9c:f7:3d:d5:a9:67:ac:be:6c:a6:fd:c3:e0:
        68:b2:fd:17:7d:5e:73:a9:1c:38:ed:da:68:f7:5d:3e:0e:3a:
        a6:0c:4a:1a:b5:a9:14:fa:73:7f:e6:fd:1d:e4:96:88:ef:26:
        2e:a8:4a:fb:23:51:b3:22:19:9a:7c:27:1b:18:68:43:5a:e1:
        a6:f2:f9:37:5f:9e:a4:a0:e3:05:71:d1:53:fb:99:27:85:7c:
        14:d8:a9:56:c9:d1:df:c0:16:d9:31:5e:3e:36:a6:0a:59:f2:
        79:39:a5:ab:4b:fd:08:68:06:f1:b1:75:bf:a6:3d:cc:57:62:
        54:1b:aa:37:55:bd:e4:96:b0:49:8a:cb:b2:27:88:93:fe:35:
        b2:a8:48:01:e3:88:15:07:01:c3:af:77:ad:bf:d0:27:28:b1:
        be:41:19:7a:05:1f:08:a3:96:2c:73:fc:d1:a8:b4:5a:ed:0c:
        dd:41:67:84:0c:77:2a:c3:94:23:65:2d:4a:94:de:2f:7d:f2:
        fb:bf:a3:ba:80:34:b4:19:8c:5e:81:05:92:23:fb:f5:3d:99:
        ce:6c:d0:ca:f4:b8:ff:db:2b:8d:67:74:95:26:2a:a1:70:cb:
        8d:5a:db:3c:07:d8:8a:44:2a:32:f6:6d:36:57:f1:1d:db:80:
        21:ea:0d:81:d2:8b:c2:73:ca:d3:a6:42:bd:f9:80:6c:36:2c:
        07:d7:dc:23:65:41:cb:a7:8b:61:dd:d8:e0:54:14:3c:75:3b:
        24:0b:e0:27:cd:50:a2:77:ba:f5:ca:70:5e:c4:3f:62:96:d8:
        0c:35:37:5b:43:f7:5e:fb:3d:57:ad:0e:24:8f:84:9d:b5:29:
        9b:0e:88:cd:62:09:c4:90
-----BEGIN CERTIFICATE-----
MIIFezCCA2OgAwIBAgICEAAwDQYJKoZIhvcNAQELBQAwTzELMAkGA1UEBhMCRlIx
FDASBgNVBAoMC0Ryb25lIEZsZWV0MREwDwYDVQQLDAhTZWN1cml0eTEXMBUGA1UE
AwwORHJvbmUgSXNzdWUgQ0EwHhcNMjYwMzAyMDI1NTAwWhcNMjcwMzAyMDI1NTAw
WjBKMQswCQYDVQQGEwJGUjEUMBIGA1UECgwLRHJvbmUgRmxlZXQxETAPBgNVBAsM
CFNlY3VyaXR5MRIwEAYDVQQDDAlkcm9uZS0wMDAwggIiMA0GCSqGSIb3DQEBAQUA
A4ICDwAwggIKAoICAQCovVjMflqK3xvV/q9coVJH8pq/8LdF9xv2aYAjwL8bzaYh
51BNaxDhdJfzjbL0JZoaT+CvFnd9Njkxo7Nn3Vjxn+ZdhoNwB/Hwg1Kt20BbsB2U
L4wc1PLFTXFZr9SCqxK2xierO0EwH6OUazFJ5MSMEXL8ueGCSbx4xNTCM49eGH6L
DOv5XG+DGLX2cPtkxHleuXDsCqVeq1ddqBjN7gs3PxUamnlsbnUmeQfp8RMGj2YB
M+FbT/d0sUzVrdwXZ0Vd0ECaDOQCM8yW6KgWlrl1BjOqVkPOhDlswvUmDc1CA40b
NYOpZ1lc+GfUgyneDCwOvFnjr8N19IkUTaLZ8wXEuLxlWGoy9/52MbD6sIc2m2Je
Uf5tBQrHQS5aKqax2AkyaU7XTaH8PThYlu4EPKNe37lCkh32VHzJO3D7RS8tc04S
YvHfMuV8M7ewvVE0T0M7frphHGsptJKDT7L/saXYoFd+hKziHyZiXdZIiWHcmUKu
nM47JIJX7yRLjlnelMpsPLoEdRKultkE+Aiy4TVd4myVB96TjTtMmEwIhh2TbDen
UXevOVHyWT1z10pIAoStFLRR+dsBPeLvfJRNovojvApkQhgIp0/wfyfpXFh44CNP
t81ofAfTO+Kq0UA2aiNJgUR7pUHxyKr8KMVzlPVVb7GJCNHiaE3V1l+zcyp+YwID
AQABo2YwZDAdBgNVHQ4EFgQU9d4jiUdID6hWLs5NRF4x58VXxHcwHwYDVR0jBBgw
FoAUCrJ4oqicgLPvaaWos6MGjpUAMD0wEgYDVR0TAQH/BAgwBgEB/wIBADAOBgNV
HQ8BAf8EBAMCAYYwDQYJKoZIhvcNAQELBQADggIBAMvmOTa6SSKJkPIHk4bT2ps8
QDLw1vuq85fpGHWIt96sLwb8HS4Q0VJPWeIz87kKeDhOoQ8xLd/a278LJdFe8Y0K
JMpIkaYQHpqhk+rvTArqLTKvrcju53xfFNYm8AUdQZDf2CzunjdXaL7xFiAkNWVC
BHu1MHRg0Lz11rG/FGD2ezyoWZoZMQuDQiKK2MmTIUtUqIJEQ6/8Y6AzyuAN6q2D
tMisWEz4D+M7zIxjDYE5V1CknT+WNIO1nPc91alnrL5spv3D4Giy/Rd9XnOpHDjt
2mj3XT4OOqYMShq1qRT6c3/m/R3klojvJi6oSvsjUbMiGZp8JxsYaENa4aby+Tdf
nqSg4wVx0VP7mSeFfBTYqVbJ0d/AFtkxXj42pgpZ8nk5patL/QhoBvGxdb+mPcxX
YlQbqjdVveSWsEmKy7IniJP+NbKoSAHjiBUHAcOvd62/0Ccosb5BGXoFHwijlixz
/NGotFrtDN1BZ4QMdyrDlCNlLUqU3i998vu/o7qANLQZjF6BBZIj+/U9mc5s0Mr0
uP/bK41ndJUmKqFwy41a2zwH2IpEKjL2bTZX8R3bgCHqDYHSi8JzytOmQr35gGw2
LAfX3CNlQcuni2Hd2OBUFDx1OyQL4CfNUKJ3uvXKcF7EP2KW2Aw1N1tD9177PVet
DiSPhJ21KZsOiM1iCcSQ
-----END CERTIFICATE-----
