Certificate:
    Data:
        Version: 3 (0x2)
        Serial Number: 4098 (0x1002)
        Signature Algorithm: sha256WithRSAEncryption
        Issuer: C=FR, O=Drone Fleet, OU=Security, CN=Drone Issue CA
        Validity
            Not Before: Mar  2 02:55:03 2026 GMT
            Not After : Mar  2 02:55:03 2027 GMT
        Subject: C=FR, O=Drone Fleet, OU=Security, CN=drone-002
        Subject Public Key Info:
            Public Key Algorithm: rsaEncryption
                Public-Key: (4096 bit)
                Modulus:
                    00:a7:dd:2f:65:8b:8c:49:9c:08:3c:ed:f5:55:0b:
                    c8:a7:fa:19:cf:f6:e8:12:82:40:f2:a7:a9:27:58:
                    58:6a:02:7e:63:55:ae:83:d9:d8:ff:90:bd:3c:12:
                    47:fc:bf:e4:34:80:7f:fe:bd:de:c7:88:99:cf:24:
                    93:ab:bf:a5:d7:7a:81:9f:72:00:26:e1:cd:49:4c:
                    07:eb:0c:d4:ca:ea:a7:9c:07:7a:90:8a:a0:c4:be:
                    8c:b8:7e:9b:7f:7f:d3:6f:31:ba:36:f3:60:12:58:
                    d0:05:6c:63:db:6e:37:c6:0f:1a:e0:b8:c2:d8:43:
                    05:cd:52:e5:2a:e5:ce:94:d3:23:ad:ca:a4:22:c6:
                    ae:49:c4:a6:0f:1c:2b:59:86:a9:a2:49:45:23:5d:
                    dd:2b:79:4c:6a:b0:7e:3d:6c:da:9d:e9:12:de:7f:
                    13:3f:3e:90:06:12:bb:cf:99:6f:ff:5b:f0:f4:d8:
                    34:0f:53:84:b3:5c:d3:1e:f4:62:bb:59:98:ca:82:
                    de:a5:dc:99:9d:0e:26:06:68:72:79:d2:a9:28:e5:
                    f2:61:25:d5:97:30:3b:4b:9d:ba:65:b2:5e:59:4a:
                    4f:66:2e:b9:f4:97:ed:5d:17:c6:85:f5:aa:dc:5b:
                    28:79:e0:7b:20:86:53:32:c0:3c:6d:5a:ac:bb:34:
                    fe:7b:da:65:f9:32:82:cd:70:bb:35:10:5c:44:dc:
                    b9:92:e6:59:07:5c:c3:fa:7b:cf:c6:7b:ad:fd:69:
                    e4:4f:33:a8:a3:d4:6c:72:cf:4b:27:9e:eb:4b:6d:
                    08:18:1c:20:93:40:b5:b1:04:00:73:bb:cb:4e:7d:
                    5d:a9:43:ff:01:32:c9:bc:9c:0d:fe:ea:12:64:e1:
                    99:7b:9e:35:d6:aa:09:74:ff:71:00:44:47:1b:35:
                    f8:90:f3:d4:dd:65:f9:99:b8:6a:b3:64:05:3c:fa:
                    0e:d0:19:88:14:6e:9a:b7:b2:8f:94:f3:b1:64:14:
                    5f:f9:3c:7b:12:90:23:cd:21:0c:6f:8e:e4:c8:5e:
                    b5:11:75:3e:e0:04:5b:fe:4c:06:e3:a5:1a:1e:79:
                    7c:5b:f5:1c:7c:9b:8a:c7:62:fa:b3:ea:1c:d8:9d:
                    f0:6e:a0:3a:94:17:b3:79:9a:a4:00:43:87:63:33:
                    f5:7b:74:d8:ab:bf:18:07:2a:92:c5:26:e0:50:17:
                    4e:86:8a:b1:1a:0d:9d:bc:73:35:8a:c7:3c:16:73:
                    a4:7e:83:14:a9:2e:62:97:a9:48:ff:3d:d1:7f:1e:
                    4b:80:6b:76:3d:88:70:dd:79:6d:3a:17:8a:d1:5c:
                    93:0f:29:d6:83:f0:f9:3f:04:75:5f:0d:4d:3f:4c:
                    96:b0:f1
                Exponent: 65537 (0x10001)
        X509v3 extensions:
            X509v3 Subject Key Identifier: 
                EA:FD:D3:11:A7:97:23:F7:4A:8A:12:D1:31:BB:38:82:6B:F7:CA:58
            X509v3 Authority Key Identifier: 
                0A:B2:78:A2:A8:9C:80:B3:EF:69:A5:A8:B3:A3:06:8E:95:00:30:3D
            X509v3 Basic Constraints: critical
                CA:TRUE, pathlen:0
            X509v3 Key Usage: critical
                Digital Signature, Certificate Sign, CRL Sign
    Signature Algorithm: sha256WithRSAEncryption
    Signature Value:
        9c:08:8a:1e:66:6c:4b:41:a2:13:a9:0a:85:63:5a:10:3c:b4:
        c8:cf:79:45:45:0a:03:d2:fc:bc:ef:08:7e:a5:ca:1a:14:79:
        a2:a0:11:0f:6c:bd:fd:7a:c8:c1:df:ca:b1:08:d2:bf:fb:2d:
        df:ae:36:51:22:56:52:65:20:3a:de:42:ca:64:c0:5a:b7:dd:
        31:d9:19:68:b9:91:50:80:f6:bf:b3:01:b3:52:b0:0f:4d:d4:
        74:b8:04:de:60:a4:16:8f:07:c3:c8:5e:a1:9f:53:9d:97:0e:
        7f:26:3f:aa:7f:cd:06:36:9f:12:aa:67:9b:8a:32:4f:e7:3e:
        f8:e3:d6:2f:3a:5c:53:18:4c:93:0e:5d:6d:ca:94:c6:c3:1a:
        f4:43:02:a0:4b:f1:46:4b:ed:9f:df:0e:c4:e5:f6:14:70:3d:
        7a:61:d1:6d:21:9a:8c:37:e1:4a:92:38:1b:fa:c2:05:0d:e1:
        6f:c7:15:68:06:6b:7f:f4:1a:74:45:6a:3c:02:8c:04:68:de:
        39:4a:09:91:b7:0d:56:46:62:a7:32:6d:98:81:a6:14:1d:5f:
        0b:89:a9:3e:35:d7:a4:43:b7:0f:5d:a4:e7:ec:f3:e7:24:fa:
        71:72:57:fb:ba:ba:64:02:1c:d0:14:49:7f:73:a2:27:2a:7d:
        5f:e4:ea:b1:2a:b8:94:95:a2:70:b9:69:90:05:80:73:ce:eb:
        e1:d3:96:a8:08:a3:9b:6e:77:48:42:54:c0:dc:dd:d8:a1:2c:
        ef:e7:d0:b1:60:40:37:b7:d7:1a:77:ff:ca:dd:cf:58:3c:bf:
        89:07:28:94:2f:d4:f4:53:5a:9d:64:a3:e3:e2:4f:fb:14:8b:
        fa:d9:8d:a8:cd:5c:05:fd:b3:a0:ad:24:df:a3:53:bf:db:76:
        1e:69:a0:1f:85:65:23:05:a5:1f:53:a3:14:d3:f3:b6:e0:3f:
        cc:0d:6b:fa:3b:3c:98:15:90:0b:67:10:a9:73:c9:17:2f:d5:
        68:6a:51:4e:5d:85:39:33:3e:8e:1a:30:64:5e:b6:70:16:4d:
        c7:82:b9:47:d5:d6:cc:7e:5c:18:45:fc:c3:bb:75:24:43:fe:
        38:99:e8:4d:f9:a1:77:aa:5b:78:84:ab:fc:ae:ef:9a:00:99:
        46:0a:ae:62:31:dc:68:5f:a1:96:a2:8a:32:de:3f:0c:2c:a3:
        bb:d8:a7:6e:2e:54:b6:da:45:3e:9a:22:b8:d9:1e:cc:9c:7e:
        13:14:56:b5:58:c6:09:86:b4:6e:a2:5a:75:60:3a:bf:b5:4e:
        8a:aa:f2:c2:00:f8:d8:05:67:5b:05:76:54:1e:a5:75:a5:7c:
        81:1a:0e:59:c0:dd:0d:12
-----BEGIN CERTIFICATE-----
MIIFezCCA2OgAwIBAgICEAIwDQYJKoZIhvcNAQELBQAwTzELMAkGA1UEBhMCRlIx
FDASBgNVBAoMC0Ryb25lIEZsZWV0MREwDwYDVQQLDAhTZWN1cml0eTEXMBUGA1UE
AwwORHJvbmUgSXNzdWUgQ0EwHhcNMjYwMzAyMDI1NTAzWhcNMjcwMzAyMDI1NTAz
WjBKMQswCQYDVQQGEwJGUjEUMBIGA1UECgwLRHJvbmUgRmxlZXQxETAPBgNVBAsM
CFNlY3VyaXR5MRIwEAYDVQQDDAlkcm9uZS0wMDIwggIiMA0GCSqGSIb3DQEBAQUA
A4ICDwAwggIKAoICAQCn3S9li4xJnAg87fVVC8in+hnP9ugSgkDyp6knWFhqAn5j
Va6D2dj/kL08Ekf8v+Q0gH/+vd7HiJnPJJOrv6XXeoGfcgAm4c1JTAfrDNTK6qec
B3qQiqDEvoy4fpt/f9NvMbo282ASWNAFbGPbbjfGDxrguMLYQwXNUuUq5c6U0yOt
yqQixq5JxKYPHCtZhqmiSUUjXd0reUxqsH49bNqd6RLefxM/PpAGErvPmW//W/D0
2DQPU4SzXNMe9GK7WZjKgt6l3JmdDiYGaHJ50qko5fJhJdWXMDtLnbplsl5ZSk9m
Lrn0l+1dF8aF9arcWyh54HsghlMywDxtWqy7NP572mX5MoLNcLs1EFxE3LmS5lkH
XMP6e8/Ge639aeRPM6ij1Gxyz0snnutLbQgYHCCTQLWxBABzu8tOfV2pQ/8BMsm8
nA3+6hJk4Zl7njXWqgl0/3EAREcbNfiQ89TdZfmZuGqzZAU8+g7QGYgUbpq3so+U
87FkFF/5PHsSkCPNIQxvjuTIXrURdT7gBFv+TAbjpRoeeXxb9Rx8m4rHYvqz6hzY
nfBuoDqUF7N5mqQAQ4djM/V7dNirvxgHKpLFJuBQF06GirEaDZ28czWKxzwWc6R+
gxSpLmKXqUj/PdF/HkuAa3Y9iHDdeW06F4rRXJMPKdaD8Pk/BHVfDU0/TJaw8QID
AQABo2YwZDAdBgNVHQ4EFgQU6v3TEaeXI/dKihLRMbs4gmv3ylgwHwYDVR0jBBgw
FoAUCrJ4oqicgLPvaaWos6MGjpUAMD0wEgYDVR0TAQH/BAgwBgEB/wIBADAOBgNV
HQ8BAf8EBAMCAYYwDQYJKoZIhvcNAQELBQADggIBAJwIih5mbEtBohOpCoVjWhA8
tMjPeUVFCgPS/LzvCH6lyhoUeaKgEQ9svf16yMHfyrEI0r/7Ld+uNlEiVlJlIDre
QspkwFq33THZGWi5kVCA9r+zAbNSsA9N1HS4BN5gpBaPB8PIXqGfU52XDn8mP6p/
zQY2nxKqZ5uKMk/nPvjj1i86XFMYTJMOXW3KlMbDGvRDAqBL8UZL7Z/fDsTl9hRw
PXph0W0hmow34UqSOBv6wgUN4W/HFWgGa3/0GnRFajwCjARo3jlKCZG3DVZGYqcy
bZiBphQdXwuJqT4116RDtw9dpOfs8+ck+nFyV/u6umQCHNAUSX9zoicqfV/k6rEq
uJSVonC5aZAFgHPO6+HTlqgIo5tud0hCVMDc3dihLO/n0LFgQDe31xp3/8rdz1g8
v4kHKJQv1PRTWp1ko+PiT/sUi/rZjajNXAX9s6CtJN+jU7/bdh5poB+FZSMFpR9T
oxTT87bgP8wNa/o7PJgVkAtnEKlzyRcv1WhqUU5dhTkzPo4aMGRetnAWTceCuUfV
1sx+XBhF/MO7dSRD/jiZ6E35oXeqW3iEq/yu75oAmUYKrmIx3GhfoZaiijLePwws
o7vYp24uVLbaRT6aIrjZHsycfhMUVrVYxgmGtG6iWnVgOr+1Toqq8sIA+NgFZ1sF
dlQepXWlfIEaDlnA3Q0S
-----END CERTIFICATE-----
