Certificate:
    Data:
        Version: 3 (0x2)
        Serial Number: 4096 (0x1000)
        Signature Algorithm: sha256WithRSAEncryption
        Issuer: C=FR, O=Drone Fleet, OU=Security, CN=Drone Fleet Root CA
        Validity
            Not Before: Mar  2 02:54:58 2026 GMT
            Not After : Mar  2 02:54:58 2027 GMT
        Subject: C=FR, O=Drone Fleet, OU=Security, CN=Drone Issue CA
        Subject Public Key Info:
            Public Key Algorithm: rsaEncryption
                Public-Key: (4096 bit)
                Modulus:
                    00:db:06:fb:6b:84:4a:76:64:4b:b7:5d:87:d3:c8:
                    cf:7b:9c:f1:57:f8:ee:f2:fe:18:98:e2:c1:6f:a4:
                    63:29:72:32:2f:cd:f6:8a:9a:49:c4:76:18:b0:7d:
                    3a:ef:ec:53:64:5f:03:e1:01:b6:45:9f:75:fa:26:
                    40:f7:36:88:04:ce:ef:02:99:e2:81:46:4f:13:6f:
                    9f:1c:b1:72:85:32:f8:d1:36:f9:2e:a9:5e:ef:05:
                    ae:2d:32:b7:a1:6c:46:5f:1a:17:3e:a2:b4:26:e5:
                    a2:15:1b:8b:16:f2:7f:5d:2e:27:a5:5e:c5:01:0e:
                    74:f4:03:ec:74:66:ec:91:ce:14:88:f2:41:81:f0:
                    74:10:db:e7:57:ae:a0:5b:10:c3:f5:08:45:f8:b9:
                    bf:99:22:08:02:42:d1:26:06:59:65:76:c3:89:37:
                    28:19:ae:5c:ef:ee:6b:45:fa:69:4e:e8:d0:1a:71:
                    92:d8:c9:89:83:47:bf:c4:22:91:01:c0:2e:0d:95:
                    a3:d1:98:8a:90:31:82:43:36:bb:82:95:45:0d:ae:
                    70:88:b6:ab:cd:5a:6a:a9:7b:7c:ce:22:fb:82:09:
                    00:b6:1a:51:97:7c:f2:dd:9c:6d:d1:9f:d8:d5:6a:
                    a7:07:bc:0c:b0:c6:13:7b:65:b3:9d:5a:56:cf:9d:
                    60:62:d7:64:76:6e:80:f6:ac:eb:d1:3f:f3:62:d7:
                    08:60:bb:3e:38:89:b8:b5:4c:7e:98:65:0f:44:0a:
                    7e:4d:ff:a0:72:c5:58:4e:13:b7:01:dc:aa:d3:3e:
                    42:d4:07:88:28:5a:a3:2f:02:ec:39:28:4d:fb:b1:
                    71:65:d5:fb:8e:21:6e:3a:59:87:26:21:60:8e:0f:
                    f3:1f:e3:53:20:54:7a:ef:6e:cf:5b:0d:1d:d0:d9:
                    bf:f3:99:b5:39:60:51:9d:cc:34:ed:38:73:af:91:
                    9d:ff:db:da:33:41:46:e3:00:b6:a1:55:02:f2:68:
                    ba:10:43:41:0a:43:eb:05:7f:2c:8f:96:b3:50:5f:
                    cd:96:37:f6:cf:ad:51:cf:dd:fd:c9:04:fe:1f:da:
                    13:b5:d8:f3:87:14:9f:96:35:9b:e3:b1:03:b0:7f:
                    e4:ba:01:64:0f:49:36:70:f2:5a:13:93:bf:64:32:
                    2b:e4:60:a1:48:a2:b9:5d:65:b5:d7:d5:2a:3b:48:
                    3e:61:6c:c3:38:5e:79:75:7f:66:e3:89:12:55:a9:
                    8b:fa:56:86:fb:3b:80:38:cb:4d:a0:66:28:4a:2a:
                    3d:67:ab:73:77:5d:56:9d:4e:64:56:0a:38:4f:67:
                    25:1f:02:94:17:36:1d:83:85:23:8e:61:8e:71:2c:
                    04:f7:9d
                Exponent: 65537 (0x10001)
        X509v3 extensions:
            X509v3 Subject Key Identifier: 
                0A:B2:78:A2:A8:9C:80:B3:EF:69:A5:A8:B3:A3:06:8E:95:00:30:3D
            X509v3 Authority Key Identifier: 
                70:B5:3F:F7:53:CC:70:A3:0C:F1:1C:4A:6A:C4:C4:24:17:95:82:7B
            X509v3 Basic Constraints: critical
                CA:TRUE
            X509v3 Key Usage: critical
                Digital Signature, Certificate Sign, CRL Sign
    Signature Algorithm: sha256WithRSAEncryption
    Signature Value:
        9e:a1:80:2f:87:2f:09:93:57:29:53:ec:6d:00:94:5c:d3:88:
        4e:55:7c:af:99:e3:85:44:e3:8e:53:6e:0a:81:05:c3:49:77:
        8f:5a:2d:2f:5b:1a:53:bb:fd:1f:0d:b6:30:f3:d2:85:99:69:
        11:29:d6:e7:f9:72:61:0c:78:88:b7:d2:61:57:8c:8d:f4:29:
        dc:14:4f:16:a4:94:0d:24:d3:33:93:b7:b7:9f:cd:b3:e6:bb:
        88:26:46:61:54:1b:ce:76:cd:7f:67:15:9e:ae:0a:1a:b4:53:
        69:28:27:3b:0d:34:0e:c4:03:c2:92:48:a8:c5:5c:81:67:d8:
        e8:01:b6:bd:bb:bb:2d:ff:ae:51:06:f2:bb:0c:ce:ba:84:c5:
        aa:ff:3f:26:95:16:e5:26:29:27:77:61:fd:95:0b:7e:f2:17:
        b7:47:61:47:33:18:a7:76:ea:37:90:cb:f1:23:ec:e7:3f:b7:
        2e:ee:12:b6:20:b4:9c:b1:a8:8a:f3:b3:25:9f:e8:0f:89:1f:
        00:96:19:f7:1c:9a:59:3b:c7:36:5b:6b:cd:4b:9b:03:87:f4:
        b8:97:79:dd:75:0e:cd:52:4c:54:8d:37:89:46:5e:02:c9:93:
        9e:57:af:3d:21:ab:da:a8:f3:3b:81:51:53:08:24:81:74:da:
        a5:0e:99:12:ec:75:c6:55:9e:1b:ea:2c:fa:ef:cc:be:2e:61:
        4d:e6:a9:83:c0:c1:f4:c9:53:95:c1:8d:7b:11:ae:08:54:cf:
        62:8e:32:fb:17:4a:f4:48:4d:a2:f6:a0:74:12:94:0c:a5:f2:
        e4:48:2d:d1:18:cd:ed:b4:0e:da:86:61:f4:1c:4d:e4:71:c0:
        77:d9:8b:92:38:13:99:f5:6c:81:4d:00:63:75:64:7e:87:cc:
        ff:25:21:54:a7:93:d1:38:bd:47:94:ad:46:cb:be:05:64:74:
        6b:a7:99:ee:6f:32:4d:80:a7:04:49:db:b4:4e:bc:56:7d:5d:
        00:60:d3:f8:be:fe:c7:1a:c2:01:31:c9:f0:b6:d7:3f:9c:10:
        bf:18:35:09:92:0d:54:6b:83:5f:43:3c:f2:29:fe:e6:49:8a:
        e8:c0:b9:97:13:3a:21:de:b8:9b:e8:06:00:0a:d8:19:30:2e:
        0d:7a:3e:e0:6e:c0:65:0f:21:d5:c5:dc:25:5c:64:83:26:30:
        4f:59:28:b0:e3:d2:24:86:d2:35:26:3e:2f:62:9d:be:60:b4:
        4b:e5:bc:64:54:89:d4:5f:f4:eb:cb:ac:07:7e:ae:79:91:94:
        2d:7f:6b:23:54:1a:47:db:cb:fb:c5:d5:b0:cd:6f:90:2b:ed:
        1b:dd:b8:01:b5:f1:0c:54
-----BEGIN CERTIFICATE-----
MIIFgjCCA2qgAwIBAgICEAAwDQYJKoZIhvcNAQELBQAwVDELMAkGA1UEBhMCRlIx
FDASBgNVBAoMC0Ryb25lIEZsZWV0MREwDwYDVQQLDAhTZWN1cml0eTEcMBoGA1UE
AwwTRHJvbmUgRmxlZXQgUm9vdCBDQTAeFw0yNjAzMDIwMjU0NThaFw0yNzAzMDIw
MjU0NThaME8xCzAJBgNVBAYTAkZSMRQwEgYDVQQKDAtEcm9uZSBGbGVldDERMA8G
A1UECwwIU2VjdXJpdHkxFzAVBgNVBAMMDkRyb25lIElzc3VlIENBMIICIjANBgkq
hkiG9w0BAQEFAAOCAg8AMIICCgKCAgEA2wb7a4RKdmRLt12H08jPe5zxV/ju8v4Y
mOLBb6RjKXIyL832ippJxHYYsH067+xTZF8D4QG2RZ91+iZA9zaIBM7vApnigUZP
E2+fHLFyhTL40Tb5Lqle7wWuLTK3oWxGXxoXPqK0JuWiFRuLFvJ/XS4npV7FAQ50
9APsdGbskc4UiPJBgfB0ENvnV66gWxDD9QhF+Lm/mSIIAkLRJgZZZXbDiTcoGa5c
7+5rRfppTujQGnGS2MmJg0e/xCKRAcAuDZWj0ZiKkDGCQza7gpVFDa5wiLarzVpq
qXt8ziL7ggkAthpRl3zy3Zxt0Z/Y1WqnB7wMsMYTe2WznVpWz51gYtdkdm6A9qzr
0T/zYtcIYLs+OIm4tUx+mGUPRAp+Tf+gcsVYThO3Adyq0z5C1AeIKFqjLwLsOShN
+7FxZdX7jiFuOlmHJiFgjg/zH+NTIFR6727PWw0d0Nm/85m1OWBRncw07Thzr5Gd
/9vaM0FG4wC2oVUC8mi6EENBCkPrBX8sj5azUF/Nljf2z61Rz939yQT+H9oTtdjz
hxSfljWb47EDsH/kugFkD0k2cPJaE5O/ZDIr5GChSKK5XWW119UqO0g+YWzDOF55
dX9m44kSVamL+laG+zuAOMtNoGYoSio9Z6tzd11WnU5kVgo4T2clHwKUFzYdg4Uj
jmGOcSwE950CAwEAAaNjMGEwHQYDVR0OBBYEFAqyeKKonICz72mlqLOjBo6VADA9
MB8GA1UdIwQYMBaAFHC1P/dTzHCjDPEcSmrExCQXlYJ7MA8GA1UdEwEB/wQFMAMB
Af8wDgYDVR0PAQH/BAQDAgGGMA0GCSqGSIb3DQEBCwUAA4ICAQCeoYAvhy8Jk1cp
U+xtAJRc04hOVXyvmeOFROOOU24KgQXDSXePWi0vWxpTu/0fDbYw89KFmWkRKdbn
+XJhDHiIt9JhV4yN9CncFE8WpJQNJNMzk7e3n82z5ruIJkZhVBvOds1/ZxWergoa
tFNpKCc7DTQOxAPCkkioxVyBZ9joAba9u7st/65RBvK7DM66hMWq/z8mlRblJikn
d2H9lQt+8he3R2FHMxinduo3kMvxI+znP7cu7hK2ILScsaiK87Mln+gPiR8Alhn3
HJpZO8c2W2vNS5sDh/S4l3nddQ7NUkxUjTeJRl4CyZOeV689IavaqPM7gVFTCCSB
dNqlDpkS7HXGVZ4b6iz678y+LmFN5qmDwMH0yVOVwY17Ea4IVM9ijjL7F0r0SE2i
9qB0EpQMpfLkSC3RGM3ttA7ahmH0HE3kccB32YuSOBOZ9WyBTQBjdWR+h8z/JSFU
p5PROL1HlK1Gy74FZHRrp5nubzJNgKcESdu0TrxWfV0AYNP4vv7HGsIBMcnwttc/
nBC/GDUJkg1Ua4NfQzzyKf7mSYrowLmXEzoh3rib6AYACtgZMC4Nej7gbsBlDyHV
xdwlXGSDJjBPWSiw49IkhtI1Jj4vYp2+YLRL5bxkVInUX/Try6wHfq55kZQtf2sj
VBpH28v7xdWwzW+QK+0b3bgBtfEMVA==
-----END CERTIFICATE-----
