Certificate:
    Data:
        Version: 3 (0x2)
        Serial Number: 4096 (0x1000)
        Signature Algorithm: sha256WithRSAEncryption
        Issuer: C=FR, O=Drone Fleet, OU=Security, CN=Drone Fleet Root CA
        Validity
            Not Before: Mar  9 08:16:43 2026 GMT
            Not After : Mar  9 08:16:43 2027 GMT
        Subject: C=FR, O=Drone Fleet, OU=Security, CN=Drone intermediate CA
        Subject Public Key Info:
            Public Key Algorithm: rsaEncryption
                Public-Key: (4096 bit)
                Modulus:
                    00:bf:84:93:f0:49:2b:60:5f:22:fd:2f:4f:4b:03:
                    1c:fe:bf:df:49:62:f7:fd:55:b5:3d:6a:2f:e1:71:
                    32:2d:34:26:ef:02:3d:7f:8f:a5:82:f0:03:59:c5:
                    00:b4:66:db:54:42:2e:f2:11:7a:f4:03:d0:66:1c:
                    ec:69:a2:49:25:ce:02:87:dd:20:20:9b:2d:b1:cf:
                    4e:47:c8:63:74:e2:40:61:72:5c:05:70:c5:0b:61:
                    af:be:17:ed:ae:d3:98:33:7e:71:73:79:8c:c2:dd:
                    23:04:c7:dc:dd:5a:aa:96:b0:ba:9c:08:53:fb:8f:
                    0f:eb:f1:bc:8e:6e:d5:28:70:e8:74:e9:64:b8:05:
                    56:17:93:f9:3f:36:0a:a9:d0:44:8f:75:39:08:92:
                    14:8f:dc:07:26:21:db:03:25:97:99:ff:6e:32:de:
                    5b:50:6b:68:8c:c5:a1:26:25:8a:e5:60:d7:ad:a6:
                    4e:54:c9:81:fd:71:3d:25:69:d8:61:b4:9a:bd:bf:
                    47:0a:07:84:ae:0f:78:c5:06:3e:5f:2a:1f:c3:5d:
                    3a:e6:5e:ac:2d:0a:3c:31:f9:40:06:84:40:81:55:
                    5d:be:d3:da:1d:80:8d:53:00:59:34:4b:39:70:3a:
                    6a:6c:05:c1:60:50:1a:23:19:d7:92:6e:16:a1:8b:
                    31:00:fe:86:60:cc:f4:40:ab:65:7d:d8:78:e4:51:
                    d4:5b:8a:8d:1b:55:3a:17:ee:7b:64:25:2a:87:a6:
                    a1:83:0c:72:9f:58:74:3a:2f:9e:70:b4:9b:c7:e5:
                    2e:22:26:e9:eb:ca:42:d0:b7:a8:f4:06:1b:17:f5:
                    8d:25:cc:ac:8f:92:3b:8e:eb:c1:6e:b5:78:46:58:
                    49:8c:ef:4e:0c:70:36:6f:4b:ec:8d:13:cf:7b:aa:
                    f7:45:1e:68:24:62:ff:31:7d:bf:1f:07:cc:9f:7b:
                    1f:aa:3d:e1:7c:59:e0:c9:04:7d:81:c8:52:42:bd:
                    98:e2:b1:86:c7:92:eb:1b:d0:b9:e1:e9:cf:38:dc:
                    1c:18:11:0d:fb:be:49:7e:11:35:91:db:38:18:9a:
                    f0:ed:69:0a:69:1d:6a:d4:7c:1a:41:7b:49:ae:5d:
                    3b:f7:fb:62:37:1b:e7:a3:aa:5a:36:3f:10:5f:6b:
                    81:79:d6:16:d2:40:8c:02:f8:26:36:d9:e8:05:81:
                    89:80:d5:68:9a:b7:1a:aa:95:04:96:fc:ef:3c:3b:
                    8a:2e:7a:01:d0:eb:f1:3c:e8:cb:19:7b:4e:95:0c:
                    f8:03:c4:56:6a:cc:6f:46:e9:e3:dc:2b:30:67:c6:
                    22:03:e5:82:02:f4:0a:cc:9e:5c:a6:05:22:e0:fd:
                    a0:83:45
                Exponent: 65537 (0x10001)
        X509v3 extensions:
            X509v3 Subject Key Identifier: 
                65:E9:6E:D0:C2:9A:13:A7:FE:48:6D:E2:09:D1:64:5A:25:BA:6F:9C
            X509v3 Authority Key Identifier: 
                D3:06:A1:34:D4:3D:94:A3:0C:7B:87:37:2F:34:0F:32:8B:3A:C2:7D
            X509v3 Basic Constraints: critical
                CA:TRUE, pathlen:0
            X509v3 Key Usage: critical
                Digital Signature, Certificate Sign, CRL Sign
    Signature Algorithm: sha256WithRSAEncryption
    Signature Value:
        1e:75:84:32:0f:14:e7:e7:1b:b4:c4:e1:d0:00:f0:8c:fe:7f:
        16:86:4d:f4:52:4a:f1:ca:49:3d:97:99:a2:fa:ef:b2:dc:e3:
        05:2f:5f:dd:3a:81:c6:b9:e6:ce:6c:a3:a7:d4:c3:06:04:c3:
        f3:a2:67:f7:8e:f6:a2:24:c8:cd:ef:ae:ec:59:d1:71:eb:19:
        2e:59:07:83:27:1a:65:55:f4:e2:23:b7:6d:6b:7e:9e:96:1c:
        51:50:fe:57:72:8b:a7:9c:57:4d:ce:87:c2:f3:69:fc:d4:b5:
        8c:99:1e:4c:f7:95:48:0f:37:38:8b:c8:48:d3:0f:9c:11:fa:
        f9:c1:cf:a3:01:9e:77:b5:9e:1c:57:00:d9:fe:a6:22:6e:54:
        fd:37:08:9c:0e:7a:d2:3a:e5:d7:e4:8f:22:54:52:3c:00:a0:
        c1:3b:6a:ed:19:cb:9e:ae:3f:72:0c:82:ba:17:38:a7:be:ed:
        65:68:60:e9:f8:4f:d8:a9:cf:1d:c4:d4:4c:0e:25:4e:7f:fa:
        a2:20:f5:61:e0:a4:ca:41:1b:34:0f:2b:8c:84:d1:34:77:47:
        d7:96:41:cd:c0:ee:a8:b2:3e:8e:df:ce:0f:1e:9d:53:f6:83:
        c5:15:cd:2c:b6:06:b9:e8:a4:89:1d:f2:0a:23:55:53:85:1e:
        fc:af:c5:38:9c:c3:a8:24:94:f0:ea:d9:9b:87:30:7e:cf:57:
        e0:5a:e1:cf:72:be:f0:42:f0:77:73:2f:9d:1e:6d:fd:1c:f4:
        ea:87:a1:cc:08:f5:4c:68:a8:8a:1a:a3:5a:2c:71:f5:61:d3:
        be:98:68:2b:6d:34:57:91:14:62:e6:3a:aa:33:a6:7f:ae:ce:
        3c:92:06:a6:ec:c5:29:ee:39:b2:ad:c0:bc:e8:5a:4e:b2:50:
        98:0e:3e:df:fd:ad:67:e5:bc:84:ab:19:94:4a:ba:a1:e7:4e:
        78:f6:ec:e4:ab:9e:be:70:4c:b3:67:d0:1b:78:82:73:30:3b:
        7e:d1:3c:66:65:41:94:42:3d:0a:41:38:ac:9f:ff:aa:e2:08:
        1c:e7:1a:92:55:2b:73:71:8c:6c:cf:84:0a:b6:d4:df:af:b5:
        03:4f:aa:1c:36:27:46:94:6a:ab:cb:93:72:f9:54:59:53:7c:
        54:4d:e0:08:99:e0:e3:26:4e:f9:6c:c0:cd:e6:9a:12:8a:ba:
        97:d3:1e:c2:4d:92:9e:41:7d:ad:8c:58:03:60:72:ea:34:ab:
        4a:09:5a:07:64:77:97:30:7c:a2:86:c5:32:02:e0:98:76:cb:
        4b:84:87:ad:7d:c9:92:ed:b0:4d:42:67:64:91:f4:03:f8:0f:
        b0:f0:6f:93:fe:54:64:43
-----BEGIN CERTIFICATE-----
MIIFjDCCA3SgAwIBAgICEAAwDQYJKoZIhvcNAQELBQAwVDELMAkGA1UEBhMCRlIx
FDASBgNVBAoMC0Ryb25lIEZsZWV0MREwDwYDVQQLDAhTZWN1cml0eTEcMBoGA1UE
AwwTRHJvbmUgRmxlZXQgUm9vdCBDQTAeFw0yNjAzMDkwODE2NDNaFw0yNzAzMDkw
ODE2NDNaMFYxCzAJBgNVBAYTAkZSMRQwEgYDVQQKDAtEcm9uZSBGbGVldDERMA8G
A1UECwwIU2VjdXJpdHkxHjAcBgNVBAMMFURyb25lIGludGVybWVkaWF0ZSBDQTCC
AiIwDQYJKoZIhvcNAQEBBQADggIPADCCAgoCggIBAL+Ek/BJK2BfIv0vT0sDHP6/
30li9/1VtT1qL+FxMi00Ju8CPX+PpYLwA1nFALRm21RCLvIRevQD0GYc7GmiSSXO
AofdICCbLbHPTkfIY3TiQGFyXAVwxQthr74X7a7TmDN+cXN5jMLdIwTH3N1aqpaw
upwIU/uPD+vxvI5u1Shw6HTpZLgFVheT+T82CqnQRI91OQiSFI/cByYh2wMll5n/
bjLeW1BraIzFoSYliuVg162mTlTJgf1xPSVp2GG0mr2/RwoHhK4PeMUGPl8qH8Nd
OuZerC0KPDH5QAaEQIFVXb7T2h2AjVMAWTRLOXA6amwFwWBQGiMZ15JuFqGLMQD+
hmDM9ECrZX3YeORR1FuKjRtVOhfue2QlKoemoYMMcp9YdDovnnC0m8flLiIm6evK
QtC3qPQGGxf1jSXMrI+SO47rwW61eEZYSYzvTgxwNm9L7I0Tz3uq90UeaCRi/zF9
vx8HzJ97H6o94XxZ4MkEfYHIUkK9mOKxhseS6xvQueHpzzjcHBgRDfu+SX4RNZHb
OBia8O1pCmkdatR8GkF7Sa5dO/f7Yjcb56OqWjY/EF9rgXnWFtJAjAL4JjbZ6AWB
iYDVaJq3GqqVBJb87zw7ii56AdDr8Tzoyxl7TpUM+APEVmrMb0bp49wrMGfGIgPl
ggL0CsyeXKYFIuD9oINFAgMBAAGjZjBkMB0GA1UdDgQWBBRl6W7QwpoTp/5IbeIJ
0WRaJbpvnDAfBgNVHSMEGDAWgBTTBqE01D2Uowx7hzcvNA8yizrCfTASBgNVHRMB
Af8ECDAGAQH/AgEAMA4GA1UdDwEB/wQEAwIBhjANBgkqhkiG9w0BAQsFAAOCAgEA
HnWEMg8U5+cbtMTh0ADwjP5/FoZN9FJK8cpJPZeZovrvstzjBS9f3TqBxrnmzmyj
p9TDBgTD86Jn9472oiTIze+u7FnRcesZLlkHgycaZVX04iO3bWt+npYcUVD+V3KL
p5xXTc6HwvNp/NS1jJkeTPeVSA83OIvISNMPnBH6+cHPowGed7WeHFcA2f6mIm5U
/TcInA560jrl1+SPIlRSPACgwTtq7RnLnq4/cgyCuhc4p77tZWhg6fhP2KnPHcTU
TA4lTn/6oiD1YeCkykEbNA8rjITRNHdH15ZBzcDuqLI+jt/ODx6dU/aDxRXNLLYG
ueikiR3yCiNVU4Ue/K/FOJzDqCSU8OrZm4cwfs9X4Frhz3K+8ELwd3MvnR5t/Rz0
6oehzAj1TGioihqjWixx9WHTvphoK200V5EUYuY6qjOmf67OPJIGpuzFKe45sq3A
vOhaTrJQmA4+3/2tZ+W8hKsZlEq6oedOePbs5KuevnBMs2fQG3iCczA7ftE8ZmVB
lEI9CkE4rJ//quIIHOcaklUrc3GMbM+ECrbU36+1A0+qHDYnRpRqq8uTcvlUWVN8
VE3gCJng4yZO+WzAzeaaEoq6l9Mewk2SnkF9rYxYA2By6jSrSglaB2R3lzB8oobF
MgLgmHbLS4SHrX3Jku2wTUJnZJH0A/gPsPBvk/5UZEM=
-----END CERTIFICATE-----
